
templog.out:     file format elf32-msp430


Disassembly of section .text:

000054c8 <__crt0_start>:
    54c8:	31 40 00 24 	mov	#9216,	r1	;#0x2400

000054cc <__crt0_init_bss>:
    54cc:	3c 40 04 1c 	mov	#7172,	r12	;#0x1c04
    54d0:	0d 43       	clr	r13		;
    54d2:	3e 40 da 00 	mov	#218,	r14	;#0x00da
    54d6:	b0 12 50 64 	call	#25680		;#0x6450

000054da <__crt0_movedata>:
    54da:	3c 40 00 1c 	mov	#7168,	r12	;#0x1c00
    54de:	3d 40 c0 54 	mov	#21696,	r13	;#0x54c0
    54e2:	0d 9c       	cmp	r12,	r13	;
    54e4:	04 24       	jz	$+10     	;abs 0x54ee
    54e6:	3e 40 04 00 	mov	#4,	r14	;
    54ea:	b0 12 10 64 	call	#25616		;#0x6410

000054ee <__crt0_call_init_then_main>:
    54ee:	b0 12 82 64 	call	#25730		;#0x6482
    54f2:	0c 43       	clr	r12		;
    54f4:	b0 12 dc 61 	call	#25052		;#0x61dc

000054f8 <_msp430_run_init_array>:
    54f8:	34 40 04 44 	mov	#17412,	r4	;#0x4404
    54fc:	35 40 04 44 	mov	#17412,	r5	;#0x4404
    5500:	26 43       	mov	#2,	r6	;r3 As==10
    5502:	0d 3c       	jmp	$+28     	;abs 0x551e

00005504 <_msp430_run_preinit_array>:
    5504:	34 40 04 44 	mov	#17412,	r4	;#0x4404
    5508:	35 40 04 44 	mov	#17412,	r5	;#0x4404
    550c:	26 43       	mov	#2,	r6	;r3 As==10
    550e:	07 3c       	jmp	$+16     	;abs 0x551e

00005510 <_msp430_run_fini_array>:
    5510:	34 40 04 44 	mov	#17412,	r4	;#0x4404
    5514:	35 40 04 44 	mov	#17412,	r5	;#0x4404
    5518:	36 40 fe ff 	mov	#65534,	r6	;#0xfffe
    551c:	00 3c       	jmp	$+2      	;abs 0x551e

0000551e <_msp430_run_array>:
    551e:	05 94       	cmp	r4,	r5	;
    5520:	05 24       	jz	$+12     	;abs 0x552c
    5522:	27 44       	mov	@r4,	r7	;
    5524:	04 56       	add	r6,	r4	;
    5526:	a7 12       	call	@r7		;
    5528:	10 40 f4 ff 	br	0xfff4		;PC rel. 0x551e

0000552c <_msp430_run_done>:
    552c:	30 41       	ret			

0000552e <deregister_tm_clones>:
    552e:	3c 40 9e 64 	mov	#25758,	r12	;#0x649e
    5532:	3c 80 9d 64 	sub	#25757,	r12	;#0x649d
    5536:	2d 43       	mov	#2,	r13	;r3 As==10
    5538:	0d 9c       	cmp	r12,	r13	;
    553a:	07 2c       	jc	$+16     	;abs 0x554a
    553c:	3d 40 00 00 	mov	#0,	r13	;
    5540:	0d 93       	cmp	#0,	r13	;r3 As==00
    5542:	03 24       	jz	$+8      	;abs 0x554a
    5544:	3c 40 9e 64 	mov	#25758,	r12	;#0x649e
    5548:	8d 12       	call	r13		;
    554a:	30 41       	ret			

0000554c <register_tm_clones>:
    554c:	3d 40 9e 64 	mov	#25758,	r13	;#0x649e
    5550:	3d 80 9e 64 	sub	#25758,	r13	;#0x649e
    5554:	0d 11       	rra	r13		;
    5556:	0c 4d       	mov	r13,	r12	;
    5558:	5c 03       	rrum	#1,	r12	;
    555a:	4d 18 0c 11 	rpt #14 { rrax.w	r12		;
    555e:	0d 5c       	add	r12,	r13	;
    5560:	0d 11       	rra	r13		;
    5562:	0d 93       	cmp	#0,	r13	;r3 As==00
    5564:	07 24       	jz	$+16     	;abs 0x5574
    5566:	3e 40 00 00 	mov	#0,	r14	;
    556a:	0e 93       	cmp	#0,	r14	;r3 As==00
    556c:	03 24       	jz	$+8      	;abs 0x5574
    556e:	3c 40 9e 64 	mov	#25758,	r12	;#0x649e
    5572:	8e 12       	call	r14		;
    5574:	30 41       	ret			

00005576 <__do_global_dtors_aux>:
    5576:	0a 15       	pushm	#1,	r10	;16-bit words
    5578:	c2 93 04 1c 	cmp.b	#0,	&0x1c04	;r3 As==00
    557c:	20 20       	jnz	$+66     	;abs 0x55be
    557e:	1c 42 06 1c 	mov	&0x1c06,r12	;0x1c06
    5582:	3a 40 0e 44 	mov	#17422,	r10	;#0x440e
    5586:	3a 80 0c 44 	sub	#17420,	r10	;#0x440c
    558a:	0a 11       	rra	r10		;
    558c:	3a 53       	add	#-1,	r10	;r3 As==11
    558e:	0c 9a       	cmp	r10,	r12	;
    5590:	0b 2c       	jc	$+24     	;abs 0x55a8
    5592:	1c 53       	inc	r12		;
    5594:	82 4c 06 1c 	mov	r12,	&0x1c06	;
    5598:	0c 5c       	rla	r12		;
    559a:	1c 4c 0c 44 	mov	17420(r12),r12	;0x0440c
    559e:	8c 12       	call	r12		;
    55a0:	1c 42 06 1c 	mov	&0x1c06,r12	;0x1c06
    55a4:	0c 9a       	cmp	r10,	r12	;
    55a6:	f5 2b       	jnc	$-20     	;abs 0x5592
    55a8:	b0 12 2e 55 	call	#21806		;#0x552e
    55ac:	3d 40 00 00 	mov	#0,	r13	;
    55b0:	0d 93       	cmp	#0,	r13	;r3 As==00
    55b2:	03 24       	jz	$+8      	;abs 0x55ba
    55b4:	3c 40 00 44 	mov	#17408,	r12	;#0x4400
    55b8:	8d 12       	call	r13		;
    55ba:	d2 43 04 1c 	mov.b	#1,	&0x1c04	;r3 As==01
    55be:	0a 17       	popm	#1,	r10	;16-bit words
    55c0:	30 41       	ret			

000055c2 <call___do_global_dtors_aux>:
    55c2:	30 41       	ret			

000055c4 <frame_dummy>:
    55c4:	3e 40 00 00 	mov	#0,	r14	;
    55c8:	0e 93       	cmp	#0,	r14	;r3 As==00
    55ca:	05 24       	jz	$+12     	;abs 0x55d6
    55cc:	3c 40 00 44 	mov	#17408,	r12	;#0x4400
    55d0:	3d 40 08 1c 	mov	#7176,	r13	;#0x1c08
    55d4:	8e 12       	call	r14		;
    55d6:	3c 40 00 1c 	mov	#7168,	r12	;#0x1c00
    55da:	8c 93 00 00 	cmp	#0,	0(r12)	;r3 As==00
    55de:	03 20       	jnz	$+8      	;abs 0x55e6
    55e0:	b0 12 4c 55 	call	#21836		;#0x554c
    55e4:	30 41       	ret			
    55e6:	3d 40 00 00 	mov	#0,	r13	;
    55ea:	0d 93       	cmp	#0,	r13	;r3 As==00
    55ec:	f9 27       	jz	$-12     	;abs 0x55e0
    55ee:	8d 12       	call	r13		;
    55f0:	f7 3f       	jmp	$-16     	;abs 0x55e0

000055f2 <call_frame_dummy>:
    55f2:	30 41       	ret			

000055f4 <TimerB1_ISR>:
    55f4:	04 12       	push	r4		;
    55f6:	04 41       	mov	r1,	r4	;
    55f8:	0c 12       	push	r12		;
    55fa:	1c 42 c0 03 	mov	&0x03c0,r12	;0x03c0
    55fe:	3c f0 fd ff 	and	#65533,	r12	;#0xfffd
    5602:	82 4c c0 03 	mov	r12,	&0x03c0	;
    5606:	1c 42 c0 03 	mov	&0x03c0,r12	;0x03c0
    560a:	0c 93       	cmp	#0,	r12	;r3 As==00
    560c:	17 24       	jz	$+48     	;abs 0x563c
    560e:	00 3c       	jmp	$+2      	;abs 0x5610
    5610:	1c 42 16 1c 	mov	&0x1c16,r12	;0x1c16
    5614:	1c 53       	inc	r12		;
    5616:	82 4c 16 1c 	mov	r12,	&0x1c16	;
    561a:	1c 42 c0 03 	mov	&0x03c0,r12	;0x03c0
    561e:	2c d2       	bis	#4,	r12	;r2 As==10
    5620:	82 4c c0 03 	mov	r12,	&0x03c0	;
    5624:	1c 42 c0 03 	mov	&0x03c0,r12	;0x03c0
    5628:	2c d3       	bis	#2,	r12	;r3 As==10
    562a:	82 4c c0 03 	mov	r12,	&0x03c0	;
    562e:	1c 42 c0 03 	mov	&0x03c0,r12	;0x03c0
    5632:	3c f0 fe ff 	and	#65534,	r12	;#0xfffe
    5636:	82 4c c0 03 	mov	r12,	&0x03c0	;
    563a:	00 3c       	jmp	$+2      	;abs 0x563c
    563c:	3c 41       	pop	r12		;
    563e:	34 41       	pop	r4		;
    5640:	00 13       	reti			
	...

00005644 <init>:
    5644:	04 12       	push	r4		;
    5646:	04 41       	mov	r1,	r4	;
    5648:	1c 42 c0 03 	mov	&0x03c0,r12	;0x03c0
    564c:	3c f0 ff e6 	and	#59135,	r12	;#0xe6ff
    5650:	82 4c c0 03 	mov	r12,	&0x03c0	;
    5654:	1c 42 c0 03 	mov	&0x03c0,r12	;0x03c0
    5658:	3c d0 00 02 	bis	#512,	r12	;#0x0200
    565c:	82 4c c0 03 	mov	r12,	&0x03c0	;
    5660:	1c 42 c0 03 	mov	&0x03c0,r12	;0x03c0
    5664:	3c d0 c0 00 	bis	#192,	r12	;#0x00c0
    5668:	82 4c c0 03 	mov	r12,	&0x03c0	;
    566c:	1c 42 c0 03 	mov	&0x03c0,r12	;0x03c0
    5670:	3c f0 ef ff 	and	#65519,	r12	;#0xffef
    5674:	82 4c c0 03 	mov	r12,	&0x03c0	;
    5678:	1c 42 c0 03 	mov	&0x03c0,r12	;0x03c0
    567c:	3c d0 20 00 	bis	#32,	r12	;#0x0020
    5680:	82 4c c0 03 	mov	r12,	&0x03c0	;
    5684:	1c 42 c0 03 	mov	&0x03c0,r12	;0x03c0
    5688:	2c d3       	bis	#2,	r12	;r3 As==10
    568a:	82 4c c0 03 	mov	r12,	&0x03c0	;
    568e:	b0 12 2a 63 	call	#25386		;#0x632a
    5692:	5c 42 04 02 	mov.b	&0x0204,r12	;0x0204
    5696:	2c d3       	bis	#2,	r12	;r3 As==10
    5698:	4d 4c       	mov.b	r12,	r13	;
    569a:	c2 4d 04 02 	mov.b	r13,	&0x0204	;
    569e:	5c 42 04 02 	mov.b	&0x0204,r12	;0x0204
    56a2:	2c d2       	bis	#4,	r12	;r2 As==10
    56a4:	4d 4c       	mov.b	r12,	r13	;
    56a6:	c2 4d 04 02 	mov.b	r13,	&0x0204	;
    56aa:	5c 42 04 02 	mov.b	&0x0204,r12	;0x0204
    56ae:	1c d3       	bis	#1,	r12	;r3 As==01
    56b0:	4d 4c       	mov.b	r12,	r13	;
    56b2:	c2 4d 04 02 	mov.b	r13,	&0x0204	;
    56b6:	32 d2       	eint			
    56b8:	03 43       	nop			
    56ba:	34 41       	pop	r4		;
    56bc:	30 41       	ret			
	...

000056c0 <task_init>:
    56c0:	04 12       	push	r4		;
    56c2:	04 41       	mov	r1,	r4	;
    56c4:	82 43 08 46 	mov	#0,	&0x4608	;r3 As==00
    56c8:	82 43 0a 46 	mov	#0,	&0x460a	;r3 As==00
    56cc:	82 43 0c 46 	mov	#0,	&0x460c	;r3 As==00
    56d0:	82 43 0e 46 	mov	#0,	&0x460e	;r3 As==00
    56d4:	82 43 10 46 	mov	#0,	&0x4610	;r3 As==00
    56d8:	92 43 12 46 	mov	#1,	&0x4612	;r3 As==01
    56dc:	3f 40 3a 44 	mov	#17466,	r15	;#0x443a
    56e0:	b0 12 ac 5e 	call	#24236		;#0x5eac
    56e4:	34 41       	pop	r4		;
    56e6:	30 41       	ret			

000056e8 <task_init_dict>:
    56e8:	04 12       	push	r4		;
    56ea:	04 41       	mov	r1,	r4	;
    56ec:	31 80 0a 00 	sub	#10,	r1	;#0x000a
    56f0:	1c 42 0c 46 	mov	&0x460c,r12	;0x460c
    56f4:	84 4c fe ff 	mov	r12,	-2(r4)	; 0xfffe
    56f8:	84 4c f8 ff 	mov	r12,	-8(r4)	; 0xfff8
    56fc:	84 43 fa ff 	mov	#0,	-6(r4)	;r3 As==00, 0xfffa
    5700:	84 43 fc ff 	mov	#0,	-4(r4)	;r3 As==00, 0xfffc
    5704:	1c 44 fe ff 	mov	-2(r4),	r12	;
    5708:	84 4c f6 ff 	mov	r12,	-10(r4)	; 0xfff6
    570c:	3e 40 06 00 	mov	#6,	r14	;
    5710:	0f 4c       	mov	r12,	r15	;
    5712:	b0 12 1c 63 	call	#25372		;#0x631c
    5716:	1c 44 fc ff 	mov	-4(r4),	r12	;
    571a:	8f 4c 18 46 	mov	r12,	17944(r15); 0x4618
    571e:	1c 44 fa ff 	mov	-6(r4),	r12	;
    5722:	8f 4c 16 46 	mov	r12,	17942(r15); 0x4616
    5726:	1c 44 f8 ff 	mov	-8(r4),	r12	;
    572a:	8f 4c 14 46 	mov	r12,	17940(r15); 0x4614
    572e:	1c 44 fe ff 	mov	-2(r4),	r12	;
    5732:	1c 53       	inc	r12		;
    5734:	84 4c fe ff 	mov	r12,	-2(r4)	; 0xfffe
    5738:	0c 44       	mov	r4,	r12	;
    573a:	2c 83       	decd	r12		;
    573c:	2d 43       	mov	#2,	r13	;r3 As==10
    573e:	0f 4c       	mov	r12,	r15	;
    5740:	0e 4c       	mov	r12,	r14	;
    5742:	b0 12 0c 60 	call	#24588		;#0x600c
    5746:	1c 44 fe ff 	mov	-2(r4),	r12	;
    574a:	3c 90 00 01 	cmp	#256,	r12	;#0x0100
    574e:	0d 2c       	jc	$+28     	;abs 0x576a
    5750:	00 3c       	jmp	$+2      	;abs 0x5752
    5752:	3e 40 0c 46 	mov	#17932,	r14	;#0x460c
    5756:	0f 44       	mov	r4,	r15	;
    5758:	2f 83       	decd	r15		;
    575a:	2d 43       	mov	#2,	r13	;r3 As==10
    575c:	b0 12 0c 60 	call	#24588		;#0x600c
    5760:	3f 40 3a 44 	mov	#17466,	r15	;#0x443a
    5764:	b0 12 ac 5e 	call	#24236		;#0x5eac
    5768:	0f 3c       	jmp	$+32     	;abs 0x5788
    576a:	b2 40 00 01 	mov	#256,	&0x5214	;#0x0100
    576e:	14 52 
    5770:	3e 40 0c 46 	mov	#17932,	r14	;#0x460c
    5774:	0f 44       	mov	r4,	r15	;
    5776:	2f 83       	decd	r15		;
    5778:	2d 43       	mov	#2,	r13	;r3 As==10
    577a:	b0 12 0c 60 	call	#24588		;#0x600c
    577e:	3f 40 64 44 	mov	#17508,	r15	;#0x4464
    5782:	b0 12 ac 5e 	call	#24236		;#0x5eac
    5786:	00 3c       	jmp	$+2      	;abs 0x5788
    5788:	31 50 0a 00 	add	#10,	r1	;#0x000a
    578c:	34 41       	pop	r4		;
    578e:	30 41       	ret			

00005790 <task_sample>:
    5790:	04 12       	push	r4		;
    5792:	04 41       	mov	r1,	r4	;
    5794:	21 82       	sub	#4,	r1	;r2 As==10
    5796:	1c 42 10 46 	mov	&0x4610,r12	;0x4610
    579a:	84 4c fe ff 	mov	r12,	-2(r4)	; 0xfffe
    579e:	1c 53       	inc	r12		;
    57a0:	84 4c fc ff 	mov	r12,	-4(r4)	; 0xfffc
    57a4:	2c 93       	cmp	#2,	r12	;r3 As==10
    57a6:	04 20       	jnz	$+10     	;abs 0x57b0
    57a8:	00 3c       	jmp	$+2      	;abs 0x57aa
    57aa:	84 43 fc ff 	mov	#0,	-4(r4)	;r3 As==00, 0xfffc
    57ae:	00 3c       	jmp	$+2      	;abs 0x57b0
    57b0:	1c 44 fe ff 	mov	-2(r4),	r12	;
    57b4:	0c 93       	cmp	#0,	r12	;r3 As==00
    57b6:	11 20       	jnz	$+36     	;abs 0x57da
    57b8:	00 3c       	jmp	$+2      	;abs 0x57ba
    57ba:	1c 44 fc ff 	mov	-4(r4),	r12	;
    57be:	84 4c fe ff 	mov	r12,	-2(r4)	; 0xfffe
    57c2:	3e 40 10 46 	mov	#17936,	r14	;#0x4610
    57c6:	0f 44       	mov	r4,	r15	;
    57c8:	2f 83       	decd	r15		;
    57ca:	2d 43       	mov	#2,	r13	;r3 As==10
    57cc:	b0 12 0c 60 	call	#24588		;#0x600c
    57d0:	3f 40 8e 44 	mov	#17550,	r15	;#0x448e
    57d4:	b0 12 ac 5e 	call	#24236		;#0x5eac
    57d8:	10 3c       	jmp	$+34     	;abs 0x57fa
    57da:	1c 44 fc ff 	mov	-4(r4),	r12	;
    57de:	84 4c fe ff 	mov	r12,	-2(r4)	; 0xfffe
    57e2:	3e 40 10 46 	mov	#17936,	r14	;#0x4610
    57e6:	0f 44       	mov	r4,	r15	;
    57e8:	2f 83       	decd	r15		;
    57ea:	2d 43       	mov	#2,	r13	;r3 As==10
    57ec:	b0 12 0c 60 	call	#24588		;#0x600c
    57f0:	3f 40 b8 44 	mov	#17592,	r15	;#0x44b8
    57f4:	b0 12 ac 5e 	call	#24236		;#0x5eac
    57f8:	00 3c       	jmp	$+2      	;abs 0x57fa
    57fa:	21 52       	add	#4,	r1	;r2 As==10
    57fc:	34 41       	pop	r4		;
    57fe:	30 41       	ret			

00005800 <task_measure_temp>:
    5800:	04 12       	push	r4		;
    5802:	04 41       	mov	r1,	r4	;
    5804:	31 82       	sub	#8,	r1	;r2 As==11
    5806:	3e 40 0e 46 	mov	#17934,	r14	;#0x460e
    580a:	1c 42 0e 46 	mov	&0x460e,r12	;0x460e
    580e:	84 4c fe ff 	mov	r12,	-2(r4)	; 0xfffe
    5812:	84 4c fc ff 	mov	r12,	-4(r4)	; 0xfffc
    5816:	0f 4c       	mov	r12,	r15	;
    5818:	84 4e f8 ff 	mov	r14,	-8(r4)	; 0xfff8
    581c:	b0 12 dc 5d 	call	#24028		;#0x5ddc
    5820:	84 4f fa ff 	mov	r15,	-6(r4)	; 0xfffa
    5824:	84 4f fc ff 	mov	r15,	-4(r4)	; 0xfffc
    5828:	84 4f fe ff 	mov	r15,	-2(r4)	; 0xfffe
    582c:	1c 44 fa ff 	mov	-6(r4),	r12	;
    5830:	82 4c 16 52 	mov	r12,	&0x5216	;
    5834:	0f 44       	mov	r4,	r15	;
    5836:	2f 83       	decd	r15		;
    5838:	2d 43       	mov	#2,	r13	;r3 As==10
    583a:	1e 44 f8 ff 	mov	-8(r4),	r14	;
    583e:	b0 12 0c 60 	call	#24588		;#0x600c
    5842:	3f 40 b8 44 	mov	#17592,	r15	;#0x44b8
    5846:	b0 12 ac 5e 	call	#24236		;#0x5eac
    584a:	31 52       	add	#8,	r1	;r2 As==11
    584c:	34 41       	pop	r4		;
    584e:	30 41       	ret			

00005850 <task_letterize>:
    5850:	04 12       	push	r4		;
    5852:	04 41       	mov	r1,	r4	;
    5854:	31 80 10 00 	sub	#16,	r1	;#0x0010
    5858:	1c 42 10 46 	mov	&0x4610,r12	;0x4610
    585c:	84 4c fe ff 	mov	r12,	-2(r4)	; 0xfffe
    5860:	0c 93       	cmp	#0,	r12	;r3 As==00
    5862:	04 20       	jnz	$+10     	;abs 0x586c
    5864:	00 3c       	jmp	$+2      	;abs 0x5866
    5866:	a4 43 fe ff 	mov	#2,	-2(r4)	;r3 As==10, 0xfffe
    586a:	06 3c       	jmp	$+14     	;abs 0x5878
    586c:	1c 44 fe ff 	mov	-2(r4),	r12	;
    5870:	3c 53       	add	#-1,	r12	;r3 As==11
    5872:	84 4c fe ff 	mov	r12,	-2(r4)	; 0xfffe
    5876:	00 3c       	jmp	$+2      	;abs 0x5878
    5878:	1c 44 fe ff 	mov	-2(r4),	r12	;
    587c:	0c 5c       	rla	r12		;
    587e:	0c 5c       	rla	r12		;
    5880:	0c 5c       	rla	r12		;
    5882:	84 4c fc ff 	mov	r12,	-4(r4)	; 0xfffc
    5886:	1c 42 16 52 	mov	&0x5216,r12	;0x5216
    588a:	5d 44 fc ff 	mov.b	-4(r4),	r13	;
    588e:	3e 40 ff 00 	mov	#255,	r14	;#0x00ff
    5892:	4d 93       	cmp.b	#0,	r13	;r3 As==00
    5894:	4f 4d       	mov.b	r13,	r15	;
    5896:	84 4c f8 ff 	mov	r12,	-8(r4)	; 0xfff8
    589a:	c4 4d f7 ff 	mov.b	r13,	-9(r4)	; 0xfff7
    589e:	84 4e f4 ff 	mov	r14,	-12(r4)	; 0xfff4
    58a2:	c4 4f f3 ff 	mov.b	r15,	-13(r4)	; 0xfff3
    58a6:	0b 24       	jz	$+24     	;abs 0x58be
    58a8:	5c 44 f3 ff 	mov.b	-13(r4),r12	;0xfffffff3
    58ac:	1d 44 f4 ff 	mov	-12(r4),r13	;0xfffffff4
    58b0:	0d 5d       	rla	r13		;
    58b2:	5c 83       	dec.b	r12		;
    58b4:	84 4d f4 ff 	mov	r13,	-12(r4)	; 0xfff4
    58b8:	c4 4c f3 ff 	mov.b	r12,	-13(r4)	; 0xfff3
    58bc:	f5 23       	jnz	$-20     	;abs 0x58a8
    58be:	1c 44 f4 ff 	mov	-12(r4),r12	;0xfffffff4
    58c2:	1d 44 f8 ff 	mov	-8(r4),	r13	;
    58c6:	0d fc       	and	r12,	r13	;
    58c8:	5e 44 f7 ff 	mov.b	-9(r4),	r14	;
    58cc:	4e 93       	cmp.b	#0,	r14	;r3 As==00
    58ce:	c4 4e f2 ff 	mov.b	r14,	-14(r4)	; 0xfff2
    58d2:	84 4d f0 ff 	mov	r13,	-16(r4)	; 0xfff0
    58d6:	0c 24       	jz	$+26     	;abs 0x58f0
    58d8:	5c 44 f2 ff 	mov.b	-14(r4),r12	;0xfffffff2
    58dc:	1d 44 f0 ff 	mov	-16(r4),r13	;0xfffffff0
    58e0:	12 c3       	clrc			
    58e2:	0d 10       	rrc	r13		;
    58e4:	5c 83       	dec.b	r12		;
    58e6:	84 4d f0 ff 	mov	r13,	-16(r4)	; 0xfff0
    58ea:	c4 4c f2 ff 	mov.b	r12,	-14(r4)	; 0xfff2
    58ee:	f4 23       	jnz	$-22     	;abs 0x58d8
    58f0:	1c 44 f0 ff 	mov	-16(r4),r12	;0xfffffff0
    58f4:	84 4c fa ff 	mov	r12,	-6(r4)	; 0xfffa
    58f8:	82 4c 0c 46 	mov	r12,	&0x460c	;
    58fc:	3f 40 e2 44 	mov	#17634,	r15	;#0x44e2
    5900:	b0 12 ac 5e 	call	#24236		;#0x5eac
    5904:	31 50 10 00 	add	#16,	r1	;#0x0010
    5908:	34 41       	pop	r4		;
    590a:	30 41       	ret			

0000590c <task_compress>:
    590c:	04 12       	push	r4		;
    590e:	04 41       	mov	r1,	r4	;
    5910:	31 80 0c 00 	sub	#12,	r1	;#0x000c
    5914:	3e 40 12 46 	mov	#17938,	r14	;#0x4612
    5918:	1c 42 12 46 	mov	&0x4612,r12	;0x4612
    591c:	84 4c fe ff 	mov	r12,	-2(r4)	; 0xfffe
    5920:	1c 42 08 46 	mov	&0x4608,r12	;0x4608
    5924:	84 4c f6 ff 	mov	r12,	-10(r4)	; 0xfff6
    5928:	3d 40 06 00 	mov	#6,	r13	;
    592c:	0f 4c       	mov	r12,	r15	;
    592e:	84 4e f4 ff 	mov	r14,	-12(r4)	; 0xfff4
    5932:	0e 4d       	mov	r13,	r14	;
    5934:	b0 12 1c 63 	call	#25372		;#0x631c
    5938:	1c 4f 18 46 	mov	17944(r15),r12	;0x04618
    593c:	84 4c fc ff 	mov	r12,	-4(r4)	; 0xfffc
    5940:	1c 4f 16 46 	mov	17942(r15),r12	;0x04616
    5944:	84 4c fa ff 	mov	r12,	-6(r4)	; 0xfffa
    5948:	1c 4f 14 46 	mov	17940(r15),r12	;0x04614
    594c:	84 4c f8 ff 	mov	r12,	-8(r4)	; 0xfff8
    5950:	1c 44 fc ff 	mov	-4(r4),	r12	;
    5954:	82 4c 18 52 	mov	r12,	&0x5218	;
    5958:	1c 44 fc ff 	mov	-4(r4),	r12	;
    595c:	82 4c 1e 52 	mov	r12,	&0x521e	;
    5960:	1c 44 fa ff 	mov	-6(r4),	r12	;
    5964:	82 4c 1c 52 	mov	r12,	&0x521c	;
    5968:	1c 44 f8 ff 	mov	-8(r4),	r12	;
    596c:	82 4c 1a 52 	mov	r12,	&0x521a	;
    5970:	1c 44 f6 ff 	mov	-10(r4),r12	;0xfffffff6
    5974:	82 4c 20 52 	mov	r12,	&0x5220	;
    5978:	1c 44 fc ff 	mov	-4(r4),	r12	;
    597c:	82 4c 22 52 	mov	r12,	&0x5222	;
    5980:	1c 44 fe ff 	mov	-2(r4),	r12	;
    5984:	1c 53       	inc	r12		;
    5986:	84 4c fe ff 	mov	r12,	-2(r4)	; 0xfffe
    598a:	0f 44       	mov	r4,	r15	;
    598c:	2f 83       	decd	r15		;
    598e:	2d 43       	mov	#2,	r13	;r3 As==10
    5990:	1e 44 f4 ff 	mov	-12(r4),r14	;0xfffffff4
    5994:	b0 12 0c 60 	call	#24588		;#0x600c
    5998:	3f 40 0c 45 	mov	#17676,	r15	;#0x450c
    599c:	b0 12 ac 5e 	call	#24236		;#0x5eac
    59a0:	31 50 0c 00 	add	#12,	r1	;#0x000c
    59a4:	34 41       	pop	r4		;
    59a6:	30 41       	ret			

000059a8 <task_find_sibling>:
    59a8:	04 12       	push	r4		;
    59aa:	04 41       	mov	r1,	r4	;
    59ac:	31 82       	sub	#8,	r1	;r2 As==11
    59ae:	1c 42 18 52 	mov	&0x5218,r12	;0x5218
    59b2:	84 4c fe ff 	mov	r12,	-2(r4)	; 0xfffe
    59b6:	0c 93       	cmp	#0,	r12	;r3 As==00
    59b8:	41 24       	jz	$+132    	;abs 0x5a3c
    59ba:	00 3c       	jmp	$+2      	;abs 0x59bc
    59bc:	1c 44 fe ff 	mov	-2(r4),	r12	;
    59c0:	84 4c fa ff 	mov	r12,	-6(r4)	; 0xfffa
    59c4:	3e 40 06 00 	mov	#6,	r14	;
    59c8:	0f 4c       	mov	r12,	r15	;
    59ca:	b0 12 1c 63 	call	#25372		;#0x631c
    59ce:	0c 4f       	mov	r15,	r12	;
    59d0:	3c 50 14 46 	add	#17940,	r12	;#0x4614
    59d4:	84 4c fc ff 	mov	r12,	-4(r4)	; 0xfffc
    59d8:	1c 4f 14 46 	mov	17940(r15),r12	;0x04614
    59dc:	1e 42 0c 46 	mov	&0x460c,r14	;0x460c
    59e0:	0c 9e       	cmp	r14,	r12	;
    59e2:	11 20       	jnz	$+36     	;abs 0x5a06
    59e4:	00 3c       	jmp	$+2      	;abs 0x59e6
    59e6:	1c 44 fe ff 	mov	-2(r4),	r12	;
    59ea:	82 4c 08 46 	mov	r12,	&0x4608	;
    59ee:	3e 40 18 52 	mov	#21016,	r14	;#0x5218
    59f2:	0f 44       	mov	r4,	r15	;
    59f4:	2f 83       	decd	r15		;
    59f6:	2d 43       	mov	#2,	r13	;r3 As==10
    59f8:	b0 12 0c 60 	call	#24588		;#0x600c
    59fc:	3f 40 b8 44 	mov	#17592,	r15	;#0x44b8
    5a00:	b0 12 ac 5e 	call	#24236		;#0x5eac
    5a04:	1a 3c       	jmp	$+54     	;abs 0x5a3a
    5a06:	1c 44 fc ff 	mov	-4(r4),	r12	;
    5a0a:	1c 4c 02 00 	mov	2(r12),	r12	;
    5a0e:	0c 93       	cmp	#0,	r12	;r3 As==00
    5a10:	13 24       	jz	$+40     	;abs 0x5a38
    5a12:	00 3c       	jmp	$+2      	;abs 0x5a14
    5a14:	1c 44 fc ff 	mov	-4(r4),	r12	;
    5a18:	1c 4c 02 00 	mov	2(r12),	r12	;
    5a1c:	84 4c fe ff 	mov	r12,	-2(r4)	; 0xfffe
    5a20:	3e 40 18 52 	mov	#21016,	r14	;#0x5218
    5a24:	0f 44       	mov	r4,	r15	;
    5a26:	2f 83       	decd	r15		;
    5a28:	2d 43       	mov	#2,	r13	;r3 As==10
    5a2a:	b0 12 0c 60 	call	#24588		;#0x600c
    5a2e:	3f 40 0c 45 	mov	#17676,	r15	;#0x450c
    5a32:	b0 12 ac 5e 	call	#24236		;#0x5eac
    5a36:	00 3c       	jmp	$+2      	;abs 0x5a38
    5a38:	00 3c       	jmp	$+2      	;abs 0x5a3a
    5a3a:	00 3c       	jmp	$+2      	;abs 0x5a3c
    5a3c:	1c 42 0c 46 	mov	&0x460c,r12	;0x460c
    5a40:	84 4c f8 ff 	mov	r12,	-8(r4)	; 0xfff8
    5a44:	82 4c 08 46 	mov	r12,	&0x4608	;
    5a48:	1c 42 22 52 	mov	&0x5222,r12	;0x5222
    5a4c:	0c 93       	cmp	#0,	r12	;r3 As==00
    5a4e:	0d 20       	jnz	$+28     	;abs 0x5a6a
    5a50:	00 3c       	jmp	$+2      	;abs 0x5a52
    5a52:	3e 40 18 52 	mov	#21016,	r14	;#0x5218
    5a56:	0f 44       	mov	r4,	r15	;
    5a58:	2f 83       	decd	r15		;
    5a5a:	2d 43       	mov	#2,	r13	;r3 As==10
    5a5c:	b0 12 0c 60 	call	#24588		;#0x600c
    5a60:	3f 40 60 45 	mov	#17760,	r15	;#0x4560
    5a64:	b0 12 ac 5e 	call	#24236		;#0x5eac
    5a68:	0c 3c       	jmp	$+26     	;abs 0x5a82
    5a6a:	3e 40 18 52 	mov	#21016,	r14	;#0x5218
    5a6e:	0f 44       	mov	r4,	r15	;
    5a70:	2f 83       	decd	r15		;
    5a72:	2d 43       	mov	#2,	r13	;r3 As==10
    5a74:	b0 12 0c 60 	call	#24588		;#0x600c
    5a78:	3f 40 36 45 	mov	#17718,	r15	;#0x4536
    5a7c:	b0 12 ac 5e 	call	#24236		;#0x5eac
    5a80:	00 3c       	jmp	$+2      	;abs 0x5a82
    5a82:	31 52       	add	#8,	r1	;r2 As==11
    5a84:	34 41       	pop	r4		;
    5a86:	30 41       	ret			

00005a88 <task_add_node>:
    5a88:	04 12       	push	r4		;
    5a8a:	04 41       	mov	r1,	r4	;
    5a8c:	31 80 0e 00 	sub	#14,	r1	;#0x000e
    5a90:	1c 42 18 52 	mov	&0x5218,r12	;0x5218
    5a94:	84 4c fe ff 	mov	r12,	-2(r4)	; 0xfffe
    5a98:	84 4c fa ff 	mov	r12,	-6(r4)	; 0xfffa
    5a9c:	3e 40 06 00 	mov	#6,	r14	;
    5aa0:	0f 4c       	mov	r12,	r15	;
    5aa2:	b0 12 1c 63 	call	#25372		;#0x631c
    5aa6:	0c 4f       	mov	r15,	r12	;
    5aa8:	3c 50 14 46 	add	#17940,	r12	;#0x4614
    5aac:	84 4c fc ff 	mov	r12,	-4(r4)	; 0xfffc
    5ab0:	1c 4f 16 46 	mov	17942(r15),r12	;0x04616
    5ab4:	0c 93       	cmp	#0,	r12	;r3 As==00
    5ab6:	15 24       	jz	$+44     	;abs 0x5ae2
    5ab8:	00 3c       	jmp	$+2      	;abs 0x5aba
    5aba:	1c 44 fc ff 	mov	-4(r4),	r12	;
    5abe:	1c 4c 02 00 	mov	2(r12),	r12	;
    5ac2:	84 4c f8 ff 	mov	r12,	-8(r4)	; 0xfff8
    5ac6:	84 4c fe ff 	mov	r12,	-2(r4)	; 0xfffe
    5aca:	3e 40 18 52 	mov	#21016,	r14	;#0x5218
    5ace:	0f 44       	mov	r4,	r15	;
    5ad0:	2f 83       	decd	r15		;
    5ad2:	2d 43       	mov	#2,	r13	;r3 As==10
    5ad4:	b0 12 0c 60 	call	#24588		;#0x600c
    5ad8:	3f 40 36 45 	mov	#17718,	r15	;#0x4536
    5adc:	b0 12 ac 5e 	call	#24236		;#0x5eac
    5ae0:	25 3c       	jmp	$+76     	;abs 0x5b2c
    5ae2:	1c 44 fc ff 	mov	-4(r4),	r12	;
    5ae6:	1d 4c 04 00 	mov	4(r12),	r13	;
    5aea:	84 4d f6 ff 	mov	r13,	-10(r4)	; 0xfff6
    5aee:	1d 4c 02 00 	mov	2(r12),	r13	;
    5af2:	84 4d f4 ff 	mov	r13,	-12(r4)	; 0xfff4
    5af6:	2c 4c       	mov	@r12,	r12	;
    5af8:	84 4c f2 ff 	mov	r12,	-14(r4)	; 0xfff2
    5afc:	1c 44 f6 ff 	mov	-10(r4),r12	;0xfffffff6
    5b00:	82 4c 28 52 	mov	r12,	&0x5228	;
    5b04:	1c 44 f4 ff 	mov	-12(r4),r12	;0xfffffff4
    5b08:	82 4c 26 52 	mov	r12,	&0x5226	;
    5b0c:	1c 44 f2 ff 	mov	-14(r4),r12	;0xfffffff2
    5b10:	82 4c 24 52 	mov	r12,	&0x5224	;
    5b14:	3e 40 18 52 	mov	#21016,	r14	;#0x5218
    5b18:	0f 44       	mov	r4,	r15	;
    5b1a:	2f 83       	decd	r15		;
    5b1c:	2d 43       	mov	#2,	r13	;r3 As==10
    5b1e:	b0 12 0c 60 	call	#24588		;#0x600c
    5b22:	3f 40 60 45 	mov	#17760,	r15	;#0x4560
    5b26:	b0 12 ac 5e 	call	#24236		;#0x5eac
    5b2a:	00 3c       	jmp	$+2      	;abs 0x5b2c
    5b2c:	31 50 0e 00 	add	#14,	r1	;#0x000e
    5b30:	34 41       	pop	r4		;
    5b32:	30 41       	ret			

00005b34 <task_add_insert>:
    5b34:	04 12       	push	r4		;
    5b36:	04 41       	mov	r1,	r4	;
    5b38:	31 80 1a 00 	sub	#26,	r1	;#0x001a
    5b3c:	1c 42 14 52 	mov	&0x5214,r12	;0x5214
    5b40:	84 4c fe ff 	mov	r12,	-2(r4)	; 0xfffe
    5b44:	3c 90 00 02 	cmp	#512,	r12	;#0x0200
    5b48:	03 20       	jnz	$+8      	;abs 0x5b50
    5b4a:	00 3c       	jmp	$+2      	;abs 0x5b4c
    5b4c:	00 3c       	jmp	$+2      	;abs 0x5b4e
    5b4e:	ff 3f       	jmp	$+0      	;abs 0x5b4e
    5b50:	1c 44 fe ff 	mov	-2(r4),	r12	;
    5b54:	84 4c fc ff 	mov	r12,	-4(r4)	; 0xfffc
    5b58:	1c 42 0c 46 	mov	&0x460c,r12	;0x460c
    5b5c:	84 4c f6 ff 	mov	r12,	-10(r4)	; 0xfff6
    5b60:	84 43 f8 ff 	mov	#0,	-8(r4)	;r3 As==00, 0xfff8
    5b64:	84 43 fa ff 	mov	#0,	-6(r4)	;r3 As==00, 0xfffa
    5b68:	1c 42 1e 52 	mov	&0x521e,r12	;0x521e
    5b6c:	0c 93       	cmp	#0,	r12	;r3 As==00
    5b6e:	27 20       	jnz	$+80     	;abs 0x5bbe
    5b70:	00 3c       	jmp	$+2      	;abs 0x5b72
    5b72:	1c 42 1e 52 	mov	&0x521e,r12	;0x521e
    5b76:	84 4c f4 ff 	mov	r12,	-12(r4)	; 0xfff4
    5b7a:	1c 42 1c 52 	mov	&0x521c,r12	;0x521c
    5b7e:	84 4c f2 ff 	mov	r12,	-14(r4)	; 0xfff2
    5b82:	1c 42 1a 52 	mov	&0x521a,r12	;0x521a
    5b86:	84 4c f0 ff 	mov	r12,	-16(r4)	; 0xfff0
    5b8a:	1c 44 fc ff 	mov	-4(r4),	r12	;
    5b8e:	84 4c f4 ff 	mov	r12,	-12(r4)	; 0xfff4
    5b92:	1c 42 20 52 	mov	&0x5220,r12	;0x5220
    5b96:	84 4c ee ff 	mov	r12,	-18(r4)	; 0xffee
    5b9a:	3e 40 06 00 	mov	#6,	r14	;
    5b9e:	0f 4c       	mov	r12,	r15	;
    5ba0:	b0 12 1c 63 	call	#25372		;#0x631c
    5ba4:	1c 44 f4 ff 	mov	-12(r4),r12	;0xfffffff4
    5ba8:	8f 4c 18 46 	mov	r12,	17944(r15); 0x4618
    5bac:	1c 44 f2 ff 	mov	-14(r4),r12	;0xfffffff2
    5bb0:	8f 4c 16 46 	mov	r12,	17942(r15); 0x4616
    5bb4:	1c 44 f0 ff 	mov	-16(r4),r12	;0xfffffff0
    5bb8:	8f 4c 14 46 	mov	r12,	17940(r15); 0x4614
    5bbc:	27 3c       	jmp	$+80     	;abs 0x5c0c
    5bbe:	1c 42 18 52 	mov	&0x5218,r12	;0x5218
    5bc2:	84 4c ec ff 	mov	r12,	-20(r4)	; 0xffec
    5bc6:	1c 42 28 52 	mov	&0x5228,r12	;0x5228
    5bca:	84 4c ea ff 	mov	r12,	-22(r4)	; 0xffea
    5bce:	1c 42 26 52 	mov	&0x5226,r12	;0x5226
    5bd2:	84 4c e8 ff 	mov	r12,	-24(r4)	; 0xffe8
    5bd6:	1c 42 24 52 	mov	&0x5224,r12	;0x5224
    5bda:	84 4c e6 ff 	mov	r12,	-26(r4)	; 0xffe6
    5bde:	1c 44 fc ff 	mov	-4(r4),	r12	;
    5be2:	84 4c e8 ff 	mov	r12,	-24(r4)	; 0xffe8
    5be6:	1f 44 ec ff 	mov	-20(r4),r15	;0xffffffec
    5bea:	3e 40 06 00 	mov	#6,	r14	;
    5bee:	b0 12 1c 63 	call	#25372		;#0x631c
    5bf2:	1c 44 ea ff 	mov	-22(r4),r12	;0xffffffea
    5bf6:	8f 4c 18 46 	mov	r12,	17944(r15); 0x4618
    5bfa:	1c 44 e8 ff 	mov	-24(r4),r12	;0xffffffe8
    5bfe:	8f 4c 16 46 	mov	r12,	17942(r15); 0x4616
    5c02:	1c 44 e6 ff 	mov	-26(r4),r12	;0xffffffe6
    5c06:	8f 4c 14 46 	mov	r12,	17940(r15); 0x4614
    5c0a:	00 3c       	jmp	$+2      	;abs 0x5c0c
    5c0c:	1f 44 fc ff 	mov	-4(r4),	r15	;
    5c10:	3e 40 06 00 	mov	#6,	r14	;
    5c14:	b0 12 1c 63 	call	#25372		;#0x631c
    5c18:	1e 44 fa ff 	mov	-6(r4),	r14	;
    5c1c:	8f 4e 18 46 	mov	r14,	17944(r15); 0x4618
    5c20:	1e 44 f8 ff 	mov	-8(r4),	r14	;
    5c24:	8f 4e 16 46 	mov	r14,	17942(r15); 0x4616
    5c28:	1e 44 f6 ff 	mov	-10(r4),r14	;0xfffffff6
    5c2c:	8f 4e 14 46 	mov	r14,	17940(r15); 0x4614
    5c30:	1e 42 20 52 	mov	&0x5220,r14	;0x5220
    5c34:	82 4e 2a 52 	mov	r14,	&0x522a	;
    5c38:	1e 44 fe ff 	mov	-2(r4),	r14	;
    5c3c:	1e 53       	inc	r14		;
    5c3e:	84 4e fe ff 	mov	r14,	-2(r4)	; 0xfffe
    5c42:	3e 40 14 52 	mov	#21012,	r14	;#0x5214
    5c46:	0f 44       	mov	r4,	r15	;
    5c48:	2f 83       	decd	r15		;
    5c4a:	2d 43       	mov	#2,	r13	;r3 As==10
    5c4c:	b0 12 0c 60 	call	#24588		;#0x600c
    5c50:	3f 40 8a 45 	mov	#17802,	r15	;#0x458a
    5c54:	b0 12 ac 5e 	call	#24236		;#0x5eac
    5c58:	31 50 1a 00 	add	#26,	r1	;#0x001a
    5c5c:	34 41       	pop	r4		;
    5c5e:	30 41       	ret			

00005c60 <task_append_compressed>:
    5c60:	04 12       	push	r4		;
    5c62:	04 41       	mov	r1,	r4	;
    5c64:	31 80 06 00 	sub	#6,	r1	;
    5c68:	1c 42 0a 46 	mov	&0x460a,r12	;0x460a
    5c6c:	84 4c fe ff 	mov	r12,	-2(r4)	; 0xfffe
    5c70:	84 4c fc ff 	mov	r12,	-4(r4)	; 0xfffc
    5c74:	1d 42 2a 52 	mov	&0x522a,r13	;0x522a
    5c78:	3e 40 06 00 	mov	#6,	r14	;
    5c7c:	0f 4c       	mov	r12,	r15	;
    5c7e:	84 4d fa ff 	mov	r13,	-6(r4)	; 0xfffa
    5c82:	b0 12 1c 63 	call	#25372		;#0x631c
    5c86:	1c 44 fa ff 	mov	-6(r4),	r12	;
    5c8a:	8f 4c 2c 52 	mov	r12,	21036(r15); 0x522c
    5c8e:	1c 44 fe ff 	mov	-2(r4),	r12	;
    5c92:	1c 53       	inc	r12		;
    5c94:	84 4c fe ff 	mov	r12,	-2(r4)	; 0xfffe
    5c98:	3c 90 40 00 	cmp	#64,	r12	;#0x0040
    5c9c:	0d 20       	jnz	$+28     	;abs 0x5cb8
    5c9e:	00 3c       	jmp	$+2      	;abs 0x5ca0
    5ca0:	3e 40 0a 46 	mov	#17930,	r14	;#0x460a
    5ca4:	0f 44       	mov	r4,	r15	;
    5ca6:	2f 83       	decd	r15		;
    5ca8:	2d 43       	mov	#2,	r13	;r3 As==10
    5caa:	b0 12 0c 60 	call	#24588		;#0x600c
    5cae:	3f 40 b4 45 	mov	#17844,	r15	;#0x45b4
    5cb2:	b0 12 ac 5e 	call	#24236		;#0x5eac
    5cb6:	0c 3c       	jmp	$+26     	;abs 0x5cd0
    5cb8:	3e 40 0a 46 	mov	#17930,	r14	;#0x460a
    5cbc:	0f 44       	mov	r4,	r15	;
    5cbe:	2f 83       	decd	r15		;
    5cc0:	2d 43       	mov	#2,	r13	;r3 As==10
    5cc2:	b0 12 0c 60 	call	#24588		;#0x600c
    5cc6:	3f 40 64 44 	mov	#17508,	r15	;#0x4464
    5cca:	b0 12 ac 5e 	call	#24236		;#0x5eac
    5cce:	00 3c       	jmp	$+2      	;abs 0x5cd0
    5cd0:	31 50 06 00 	add	#6,	r1	;
    5cd4:	34 41       	pop	r4		;
    5cd6:	30 41       	ret			

00005cd8 <task_print>:
    5cd8:	04 12       	push	r4		;
    5cda:	04 41       	mov	r1,	r4	;
    5cdc:	21 82       	sub	#4,	r1	;r2 As==10
    5cde:	84 43 fe ff 	mov	#0,	-2(r4)	;r3 As==00, 0xfffe
    5ce2:	00 3c       	jmp	$+2      	;abs 0x5ce4
    5ce4:	1c 44 fe ff 	mov	-2(r4),	r12	;
    5ce8:	3c 90 40 00 	cmp	#64,	r12	;#0x0040
    5cec:	1f 2c       	jc	$+64     	;abs 0x5d2c
    5cee:	00 3c       	jmp	$+2      	;abs 0x5cf0
    5cf0:	1f 44 fe ff 	mov	-2(r4),	r15	;
    5cf4:	3e 40 06 00 	mov	#6,	r14	;
    5cf8:	b0 12 1c 63 	call	#25372		;#0x631c
    5cfc:	1e 4f 2c 52 	mov	21036(r15),r14	;0x0522c
    5d00:	84 4e fc ff 	mov	r14,	-4(r4)	; 0xfffc
    5d04:	1e 44 fe ff 	mov	-2(r4),	r14	;
    5d08:	0e 93       	cmp	#0,	r14	;r3 As==00
    5d0a:	09 24       	jz	$+20     	;abs 0x5d1e
    5d0c:	00 3c       	jmp	$+2      	;abs 0x5d0e
    5d0e:	1c 44 fe ff 	mov	-2(r4),	r12	;
    5d12:	1c 53       	inc	r12		;
    5d14:	3c b0 07 00 	bit	#7,	r12	;
    5d18:	02 20       	jnz	$+6      	;abs 0x5d1e
    5d1a:	00 3c       	jmp	$+2      	;abs 0x5d1c
    5d1c:	00 3c       	jmp	$+2      	;abs 0x5d1e
    5d1e:	00 3c       	jmp	$+2      	;abs 0x5d20
    5d20:	1c 44 fe ff 	mov	-2(r4),	r12	;
    5d24:	1c 53       	inc	r12		;
    5d26:	84 4c fe ff 	mov	r12,	-2(r4)	; 0xfffe
    5d2a:	dc 3f       	jmp	$-70     	;abs 0x5ce4
    5d2c:	3f 40 de 45 	mov	#17886,	r15	;#0x45de
    5d30:	b0 12 ac 5e 	call	#24236		;#0x5eac
    5d34:	21 52       	add	#4,	r1	;r2 As==10
    5d36:	34 41       	pop	r4		;
    5d38:	30 41       	ret			
	...

00005d3c <task_done>:
    5d3c:	04 12       	push	r4		;
    5d3e:	04 41       	mov	r1,	r4	;
    5d40:	21 82       	sub	#4,	r1	;r2 As==10
    5d42:	84 43 fe ff 	mov	#0,	-2(r4)	;r3 As==00, 0xfffe
    5d46:	b4 40 f8 01 	mov	#504,	-2(r4)	;#0x01f8, 0xfffe
    5d4a:	fe ff 
    5d4c:	b4 40 fa 01 	mov	#506,	-2(r4)	;#0x01fa, 0xfffe
    5d50:	fe ff 
    5d52:	b4 40 fc 01 	mov	#508,	-2(r4)	;#0x01fc, 0xfffe
    5d56:	fe ff 
    5d58:	b4 40 fe 01 	mov	#510,	-2(r4)	;#0x01fe, 0xfffe
    5d5c:	fe ff 
    5d5e:	b4 40 00 02 	mov	#512,	-2(r4)	;#0x0200, 0xfffe
    5d62:	fe ff 
    5d64:	b4 40 02 02 	mov	#514,	-2(r4)	;#0x0202, 0xfffe
    5d68:	fe ff 
    5d6a:	b4 40 02 0e 	mov	#3586,	-2(r4)	;#0x0e02, 0xfffe
    5d6e:	fe ff 
    5d70:	b4 40 04 0e 	mov	#3588,	-2(r4)	;#0x0e04, 0xfffe
    5d74:	fe ff 
    5d76:	b4 40 06 0e 	mov	#3590,	-2(r4)	;#0x0e06, 0xfffe
    5d7a:	fe ff 
    5d7c:	b4 40 08 0e 	mov	#3592,	-2(r4)	;#0x0e08, 0xfffe
    5d80:	fe ff 
    5d82:	b4 40 0a 0e 	mov	#3594,	-2(r4)	;#0x0e0a, 0xfffe
    5d86:	fe ff 
    5d88:	b4 40 0c 0e 	mov	#3596,	-2(r4)	;#0x0e0c, 0xfffe
    5d8c:	fe ff 
    5d8e:	b4 40 0e 0e 	mov	#3598,	-2(r4)	;#0x0e0e, 0xfffe
    5d92:	fe ff 
    5d94:	b4 40 14 0e 	mov	#3604,	-2(r4)	;#0x0e14, 0xfffe
    5d98:	fe ff 
    5d9a:	b4 40 94 0f 	mov	#3988,	-2(r4)	;#0x0f94, 0xfffe
    5d9e:	fe ff 
    5da0:	b4 40 9a 0f 	mov	#3994,	-2(r4)	;#0x0f9a, 0xfffe
    5da4:	fe ff 
    5da6:	b4 40 9c 0f 	mov	#3996,	-2(r4)	;#0x0f9c, 0xfffe
    5daa:	fe ff 
    5dac:	b4 40 de 0f 	mov	#4062,	-2(r4)	;#0x0fde, 0xfffe
    5db0:	fe ff 
    5db2:	b4 40 e0 0f 	mov	#4064,	-2(r4)	;#0x0fe0, 0xfffe
    5db6:	fe ff 
    5db8:	21 52       	add	#4,	r1	;r2 As==10
    5dba:	34 41       	pop	r4		;
    5dbc:	30 41       	ret			
	...

00005dc0 <_entry_task>:
    5dc0:	04 12       	push	r4		;
    5dc2:	04 41       	mov	r1,	r4	;
    5dc4:	3f 40 10 44 	mov	#17424,	r15	;#0x4410
    5dc8:	b0 12 ac 5e 	call	#24236		;#0x5eac
    5dcc:	34 41       	pop	r4		;
    5dce:	30 41       	ret			

00005dd0 <_init>:
    5dd0:	04 12       	push	r4		;
    5dd2:	04 41       	mov	r1,	r4	;
    5dd4:	b0 12 44 56 	call	#22084		;#0x5644
    5dd8:	34 41       	pop	r4		;
    5dda:	30 41       	ret			

00005ddc <acquire_sample>:
    5ddc:	04 12       	push	r4		;
    5dde:	04 41       	mov	r1,	r4	;
    5de0:	31 80 06 00 	sub	#6,	r1	;
    5de4:	0c 4f       	mov	r15,	r12	;
    5de6:	84 4f fe ff 	mov	r15,	-2(r4)	; 0xfffe
    5dea:	1f 53       	inc	r15		;
    5dec:	3f f0 03 00 	and	#3,	r15	;
    5df0:	84 4f fc ff 	mov	r15,	-4(r4)	; 0xfffc
    5df4:	84 4c fa ff 	mov	r12,	-6(r4)	; 0xfffa
    5df8:	31 50 06 00 	add	#6,	r1	;
    5dfc:	34 41       	pop	r4		;
    5dfe:	30 41       	ret			

00005e00 <task_prologue>:
    5e00:	04 12       	push	r4		;
    5e02:	04 41       	mov	r1,	r4	;
    5e04:	31 80 06 00 	sub	#6,	r1	;
    5e08:	1c 42 f4 53 	mov	&0x53f4,r12	;0x53f4
    5e0c:	1c 4c 04 00 	mov	4(r12),	r12	;
    5e10:	2c 4c       	mov	@r12,	r12	;
    5e12:	84 4c fe ff 	mov	r12,	-2(r4)	; 0xfffe
    5e16:	1c 42 f4 53 	mov	&0x53f4,r12	;0x53f4
    5e1a:	1c 4c 02 00 	mov	2(r12),	r12	;
    5e1e:	1d 44 fe ff 	mov	-2(r4),	r13	;
    5e22:	1d 4d 08 00 	mov	8(r13),	r13	;
    5e26:	0c 9d       	cmp	r13,	r12	;
    5e28:	3a 24       	jz	$+118    	;abs 0x5e9e
    5e2a:	00 3c       	jmp	$+2      	;abs 0x5e2c
    5e2c:	00 3c       	jmp	$+2      	;abs 0x5e2e
    5e2e:	1c 42 d6 53 	mov	&0x53d6,r12	;0x53d6
    5e32:	1d 42 d8 53 	mov	&0x53d8,r13	;0x53d8
    5e36:	0c 9d       	cmp	r13,	r12	;
    5e38:	25 2c       	jc	$+76     	;abs 0x5e84
    5e3a:	00 3c       	jmp	$+2      	;abs 0x5e3c
    5e3c:	1c 42 d6 53 	mov	&0x53d6,r12	;0x53d6
    5e40:	0c 5c       	rla	r12		;
    5e42:	1c 4c f8 53 	mov	21496(r12),r12	;0x053f8
    5e46:	84 4c fc ff 	mov	r12,	-4(r4)	; 0xfffc
    5e4a:	0c 93       	cmp	#0,	r12	;r3 As==00
    5e4c:	15 24       	jz	$+44     	;abs 0x5e78
    5e4e:	00 3c       	jmp	$+2      	;abs 0x5e50
    5e50:	1c 42 d6 53 	mov	&0x53d6,r12	;0x53d6
    5e54:	0c 5c       	rla	r12		;
    5e56:	1c 4c 3a 54 	mov	21562(r12),r12	;0x0543a
    5e5a:	84 4c fa ff 	mov	r12,	-6(r4)	; 0xfffa
    5e5e:	1f 44 fc ff 	mov	-4(r4),	r15	;
    5e62:	1c 42 d6 53 	mov	&0x53d6,r12	;0x53d6
    5e66:	0c 5c       	rla	r12		;
    5e68:	3c 50 7c 54 	add	#21628,	r12	;#0x547c
    5e6c:	1d 44 fa ff 	mov	-6(r4),	r13	;
    5e70:	0e 4c       	mov	r12,	r14	;
    5e72:	b0 12 78 62 	call	#25208		;#0x6278
    5e76:	00 3c       	jmp	$+2      	;abs 0x5e78
    5e78:	1c 42 d6 53 	mov	&0x53d6,r12	;0x53d6
    5e7c:	1c 53       	inc	r12		;
    5e7e:	82 4c d6 53 	mov	r12,	&0x53d6	;
    5e82:	d5 3f       	jmp	$-84     	;abs 0x5e2e
    5e84:	82 43 d8 53 	mov	#0,	&0x53d8	;r3 As==00
    5e88:	82 43 d6 53 	mov	#0,	&0x53d6	;r3 As==00
    5e8c:	1c 42 f4 53 	mov	&0x53f4,r12	;0x53f4
    5e90:	1c 4c 02 00 	mov	2(r12),	r12	;
    5e94:	1d 44 fe ff 	mov	-2(r4),	r13	;
    5e98:	8d 4c 08 00 	mov	r12,	8(r13)	;
    5e9c:	03 3c       	jmp	$+8      	;abs 0x5ea4
    5e9e:	82 43 d8 53 	mov	#0,	&0x53d8	;r3 As==00
    5ea2:	00 3c       	jmp	$+2      	;abs 0x5ea4
    5ea4:	31 50 06 00 	add	#6,	r1	;
    5ea8:	34 41       	pop	r4		;
    5eaa:	30 41       	ret			

00005eac <transition_to>:
    5eac:	04 12       	push	r4		;
    5eae:	04 41       	mov	r1,	r4	;
    5eb0:	31 80 0a 00 	sub	#10,	r1	;#0x000a
    5eb4:	0c 4f       	mov	r15,	r12	;
    5eb6:	84 4f fe ff 	mov	r15,	-2(r4)	; 0xfffe
    5eba:	1f 42 f4 53 	mov	&0x53f4,r15	;0x53f4
    5ebe:	3d 40 ee 53 	mov	#21486,	r13	;#0x53ee
    5ec2:	3e 40 e2 53 	mov	#21474,	r14	;#0x53e2
    5ec6:	0f 9d       	cmp	r13,	r15	;
    5ec8:	84 4c fa ff 	mov	r12,	-6(r4)	; 0xfffa
    5ecc:	84 4d f8 ff 	mov	r13,	-8(r4)	; 0xfff8
    5ed0:	84 4e f6 ff 	mov	r14,	-10(r4)	; 0xfff6
    5ed4:	04 24       	jz	$+10     	;abs 0x5ede
    5ed6:	1c 44 f8 ff 	mov	-8(r4),	r12	;
    5eda:	84 4c f6 ff 	mov	r12,	-10(r4)	; 0xfff6
    5ede:	1c 44 f6 ff 	mov	-10(r4),r12	;0xfffffff6
    5ee2:	84 4c fc ff 	mov	r12,	-4(r4)	; 0xfffc
    5ee6:	1d 44 fe ff 	mov	-2(r4),	r13	;
    5eea:	8c 4d 00 00 	mov	r13,	0(r12)	;
    5eee:	1c 42 f4 53 	mov	&0x53f4,r12	;0x53f4
    5ef2:	1c 4c 02 00 	mov	2(r12),	r12	;
    5ef6:	1c 53       	inc	r12		;
    5ef8:	1d 44 fc ff 	mov	-4(r4),	r13	;
    5efc:	8d 4c 02 00 	mov	r12,	2(r13)	;
    5f00:	1c 42 f4 53 	mov	&0x53f4,r12	;0x53f4
    5f04:	1c 4c 02 00 	mov	2(r12),	r12	;
    5f08:	1d 44 fc ff 	mov	-4(r4),	r13	;
    5f0c:	1d 4d 04 00 	mov	4(r13),	r13	;
    5f10:	8d 4c 02 00 	mov	r12,	2(r13)	;
    5f14:	1c 42 f4 53 	mov	&0x53f4,r12	;0x53f4
    5f18:	2c 4c       	mov	@r12,	r12	;
    5f1a:	1d 44 fc ff 	mov	-4(r4),	r13	;
    5f1e:	1d 4d 04 00 	mov	4(r13),	r13	;
    5f22:	8d 4c 00 00 	mov	r12,	0(r13)	;
    5f26:	1c 44 fc ff 	mov	-4(r4),	r12	;
    5f2a:	82 4c f4 53 	mov	r12,	&0x53f4	;
    5f2e:	b0 12 00 5e 	call	#24064		;#0x5e00
    5f32:	1c 44 fe ff 	mov	-2(r4),	r12	;
    5f36:	2c 4c       	mov	@r12,	r12	;
    5f38:	31 40 00 24 	mov	#9216,	r1	;#0x2400
    5f3c:	00 4c       	br	r12		;
    5f3e:	31 50 0a 00 	add	#10,	r1	;#0x000a
    5f42:	34 41       	pop	r4		;
    5f44:	30 41       	ret			
	...

00005f48 <chan_in>:
    5f48:	04 12       	push	r4		;
    5f4a:	04 41       	mov	r1,	r4	;
    5f4c:	0b 12       	push	r11		;
    5f4e:	0a 12       	push	r10		;
    5f50:	31 80 18 00 	sub	#24,	r1	;#0x0018
    5f54:	0c 4d       	mov	r13,	r12	;
    5f56:	0b 4e       	mov	r14,	r11	;
    5f58:	0a 4f       	mov	r15,	r10	;
    5f5a:	84 4f fa ff 	mov	r15,	-6(r4)	; 0xfffa
    5f5e:	84 4e f8 ff 	mov	r14,	-8(r4)	; 0xfff8
    5f62:	84 4d f6 ff 	mov	r13,	-10(r4)	; 0xfff6
    5f66:	84 43 f2 ff 	mov	#0,	-14(r4)	;r3 As==00, 0xfff2
    5f6a:	1d 44 f8 ff 	mov	-8(r4),	r13	;
    5f6e:	2d 53       	incd	r13		;
    5f70:	84 4d ee ff 	mov	r13,	-18(r4)	; 0xffee
    5f74:	1d 44 f8 ff 	mov	-8(r4),	r13	;
    5f78:	84 4d ec ff 	mov	r13,	-20(r4)	; 0xffec
    5f7c:	1d 44 ee ff 	mov	-18(r4),r13	;0xffffffee
    5f80:	1e 44 f6 ff 	mov	-10(r4),r14	;0xfffffff6
    5f84:	0d 5e       	add	r14,	r13	;
    5f86:	84 4d ea ff 	mov	r13,	-22(r4)	; 0xffea
    5f8a:	84 4d f0 ff 	mov	r13,	-16(r4)	; 0xfff0
    5f8e:	0f 4d       	mov	r13,	r15	;
    5f90:	84 4c e8 ff 	mov	r12,	-24(r4)	; 0xffe8
    5f94:	84 4b e6 ff 	mov	r11,	-26(r4)	; 0xffe6
    5f98:	84 4a e4 ff 	mov	r10,	-28(r4)	; 0xffe4
    5f9c:	31 50 18 00 	add	#24,	r1	;#0x0018
    5fa0:	3a 41       	pop	r10		;
    5fa2:	3b 41       	pop	r11		;
    5fa4:	34 41       	pop	r4		;
    5fa6:	30 41       	ret			

00005fa8 <chan_out>:
    5fa8:	04 12       	push	r4		;
    5faa:	04 41       	mov	r1,	r4	;
    5fac:	31 80 14 00 	sub	#20,	r1	;#0x0014
    5fb0:	1c 44 0a 00 	mov	10(r4),	r12	;0x0000a
    5fb4:	1d 44 08 00 	mov	8(r4),	r13	;
    5fb8:	1e 44 06 00 	mov	6(r4),	r14	;
    5fbc:	1f 44 04 00 	mov	4(r4),	r15	;
    5fc0:	84 4f fe ff 	mov	r15,	-2(r4)	; 0xfffe
    5fc4:	84 4e fc ff 	mov	r14,	-4(r4)	; 0xfffc
    5fc8:	84 4d fa ff 	mov	r13,	-6(r4)	; 0xfffa
    5fcc:	84 4c f8 ff 	mov	r12,	-8(r4)	; 0xfff8
    5fd0:	1c 44 fa ff 	mov	-6(r4),	r12	;
    5fd4:	2c 53       	incd	r12		;
    5fd6:	84 4c f0 ff 	mov	r12,	-16(r4)	; 0xfff0
    5fda:	1c 44 fa ff 	mov	-6(r4),	r12	;
    5fde:	84 4c ee ff 	mov	r12,	-18(r4)	; 0xffee
    5fe2:	1c 44 f0 ff 	mov	-16(r4),r12	;0xfffffff0
    5fe6:	1d 44 f8 ff 	mov	-8(r4),	r13	;
    5fea:	0c 5d       	add	r13,	r12	;
    5fec:	84 4c ec ff 	mov	r12,	-20(r4)	; 0xffec
    5ff0:	84 4c f2 ff 	mov	r12,	-14(r4)	; 0xfff2
    5ff4:	1e 44 fe ff 	mov	-2(r4),	r14	;
    5ff8:	1d 44 fc ff 	mov	-4(r4),	r13	;
    5ffc:	0f 4c       	mov	r12,	r15	;
    5ffe:	b0 12 78 62 	call	#25208		;#0x6278
    6002:	31 50 14 00 	add	#20,	r1	;#0x0014
    6006:	34 41       	pop	r4		;
    6008:	30 41       	ret			
	...

0000600c <write_to_gbuf>:
    600c:	04 12       	push	r4		;
    600e:	04 41       	mov	r1,	r4	;
    6010:	0b 12       	push	r11		;
    6012:	0a 12       	push	r10		;
    6014:	31 80 12 00 	sub	#18,	r1	;#0x0012
    6018:	0c 4d       	mov	r13,	r12	;
    601a:	0b 4e       	mov	r14,	r11	;
    601c:	0a 4f       	mov	r15,	r10	;
    601e:	84 4f fa ff 	mov	r15,	-6(r4)	; 0xfffa
    6022:	84 4e f8 ff 	mov	r14,	-8(r4)	; 0xfff8
    6026:	84 4d f6 ff 	mov	r13,	-10(r4)	; 0xfff6
    602a:	1d 42 d8 53 	mov	&0x53d8,r13	;0x53d8
    602e:	0d 5d       	rla	r13		;
    6030:	3d 50 7c 54 	add	#21628,	r13	;#0x547c
    6034:	1e 44 fa ff 	mov	-6(r4),	r14	;
    6038:	1f 44 f6 ff 	mov	-10(r4),r15	;0xfffffff6
    603c:	84 4f f0 ff 	mov	r15,	-16(r4)	; 0xfff0
    6040:	0f 4d       	mov	r13,	r15	;
    6042:	1d 44 f0 ff 	mov	-16(r4),r13	;0xfffffff0
    6046:	84 4c ee ff 	mov	r12,	-18(r4)	; 0xffee
    604a:	84 4b ec ff 	mov	r11,	-20(r4)	; 0xffec
    604e:	84 4a ea ff 	mov	r10,	-22(r4)	; 0xffea
    6052:	b0 12 78 62 	call	#25208		;#0x6278
    6056:	1c 44 f6 ff 	mov	-10(r4),r12	;0xfffffff6
    605a:	1d 42 d8 53 	mov	&0x53d8,r13	;0x53d8
    605e:	0d 5d       	rla	r13		;
    6060:	8d 4c 3a 54 	mov	r12,	21562(r13); 0x543a
    6064:	1c 44 f8 ff 	mov	-8(r4),	r12	;
    6068:	1d 42 d8 53 	mov	&0x53d8,r13	;0x53d8
    606c:	0d 5d       	rla	r13		;
    606e:	8d 4c f8 53 	mov	r12,	21496(r13); 0x53f8
    6072:	1c 44 f6 ff 	mov	-10(r4),r12	;0xfffffff6
    6076:	3c 90 03 00 	cmp	#3,	r12	;
    607a:	2a 28       	jnc	$+86     	;abs 0x60d0
    607c:	00 3c       	jmp	$+2      	;abs 0x607e
    607e:	1c 44 f6 ff 	mov	-10(r4),r12	;0xfffffff6
    6082:	3c 53       	add	#-1,	r12	;r3 As==11
    6084:	12 c3       	clrc			
    6086:	0c 10       	rrc	r12		;
    6088:	1c 53       	inc	r12		;
    608a:	84 4c f4 ff 	mov	r12,	-12(r4)	; 0xfff4
    608e:	94 43 f2 ff 	mov	#1,	-14(r4)	;r3 As==01, 0xfff2
    6092:	00 3c       	jmp	$+2      	;abs 0x6094
    6094:	1c 44 f2 ff 	mov	-14(r4),r12	;0xfffffff2
    6098:	1d 44 f4 ff 	mov	-12(r4),r13	;0xfffffff4
    609c:	0c 9d       	cmp	r13,	r12	;
    609e:	10 2c       	jc	$+34     	;abs 0x60c0
    60a0:	00 3c       	jmp	$+2      	;abs 0x60a2
    60a2:	1c 42 d8 53 	mov	&0x53d8,r12	;0x53d8
    60a6:	1d 44 f2 ff 	mov	-14(r4),r13	;0xfffffff2
    60aa:	0c 5d       	add	r13,	r12	;
    60ac:	0c 5c       	rla	r12		;
    60ae:	8c 43 f8 53 	mov	#0,	21496(r12);r3 As==00, 0x53f8
    60b2:	00 3c       	jmp	$+2      	;abs 0x60b4
    60b4:	1c 44 f2 ff 	mov	-14(r4),r12	;0xfffffff2
    60b8:	1c 53       	inc	r12		;
    60ba:	84 4c f2 ff 	mov	r12,	-14(r4)	; 0xfff2
    60be:	ea 3f       	jmp	$-42     	;abs 0x6094
    60c0:	1c 44 f4 ff 	mov	-12(r4),r12	;0xfffffff4
    60c4:	1d 42 d8 53 	mov	&0x53d8,r13	;0x53d8
    60c8:	0d 5c       	add	r12,	r13	;
    60ca:	82 4d d8 53 	mov	r13,	&0x53d8	;
    60ce:	06 3c       	jmp	$+14     	;abs 0x60dc
    60d0:	1c 42 d8 53 	mov	&0x53d8,r12	;0x53d8
    60d4:	1c 53       	inc	r12		;
    60d6:	82 4c d8 53 	mov	r12,	&0x53d8	;
    60da:	00 3c       	jmp	$+2      	;abs 0x60dc
    60dc:	31 50 12 00 	add	#18,	r1	;#0x0012
    60e0:	3a 41       	pop	r10		;
    60e2:	3b 41       	pop	r11		;
    60e4:	34 41       	pop	r4		;
    60e6:	30 41       	ret			

000060e8 <chan_out_gbuf>:
    60e8:	04 12       	push	r4		;
    60ea:	04 41       	mov	r1,	r4	;
    60ec:	31 80 18 00 	sub	#24,	r1	;#0x0018
    60f0:	1c 44 0a 00 	mov	10(r4),	r12	;0x0000a
    60f4:	1d 44 08 00 	mov	8(r4),	r13	;
    60f8:	1e 44 06 00 	mov	6(r4),	r14	;
    60fc:	1f 44 04 00 	mov	4(r4),	r15	;
    6100:	84 4f fe ff 	mov	r15,	-2(r4)	; 0xfffe
    6104:	84 4e fc ff 	mov	r14,	-4(r4)	; 0xfffc
    6108:	84 4d fa ff 	mov	r13,	-6(r4)	; 0xfffa
    610c:	84 4c f8 ff 	mov	r12,	-8(r4)	; 0xfff8
    6110:	1c 44 fa ff 	mov	-6(r4),	r12	;
    6114:	2c 53       	incd	r12		;
    6116:	84 4c f0 ff 	mov	r12,	-16(r4)	; 0xfff0
    611a:	1c 44 fa ff 	mov	-6(r4),	r12	;
    611e:	84 4c ee ff 	mov	r12,	-18(r4)	; 0xffee
    6122:	1c 44 f0 ff 	mov	-16(r4),r12	;0xfffffff0
    6126:	1d 44 f8 ff 	mov	-8(r4),	r13	;
    612a:	0c 5d       	add	r13,	r12	;
    612c:	84 4c ec ff 	mov	r12,	-20(r4)	; 0xffec
    6130:	1c 42 d8 53 	mov	&0x53d8,r12	;0x53d8
    6134:	0c 5c       	rla	r12		;
    6136:	3c 50 7c 54 	add	#21628,	r12	;#0x547c
    613a:	1e 44 fe ff 	mov	-2(r4),	r14	;
    613e:	1d 44 fc ff 	mov	-4(r4),	r13	;
    6142:	0f 4c       	mov	r12,	r15	;
    6144:	b0 12 78 62 	call	#25208		;#0x6278
    6148:	1c 44 fc ff 	mov	-4(r4),	r12	;
    614c:	1d 42 d8 53 	mov	&0x53d8,r13	;0x53d8
    6150:	0d 5d       	rla	r13		;
    6152:	8d 4c 3a 54 	mov	r12,	21562(r13); 0x543a
    6156:	1c 44 ec ff 	mov	-20(r4),r12	;0xffffffec
    615a:	84 4c f2 ff 	mov	r12,	-14(r4)	; 0xfff2
    615e:	1d 42 d8 53 	mov	&0x53d8,r13	;0x53d8
    6162:	0d 5d       	rla	r13		;
    6164:	8d 4c f8 53 	mov	r12,	21496(r13); 0x53f8
    6168:	1c 44 fc ff 	mov	-4(r4),	r12	;
    616c:	3c 90 03 00 	cmp	#3,	r12	;
    6170:	2a 28       	jnc	$+86     	;abs 0x61c6
    6172:	00 3c       	jmp	$+2      	;abs 0x6174
    6174:	1c 44 fc ff 	mov	-4(r4),	r12	;
    6178:	3c 53       	add	#-1,	r12	;r3 As==11
    617a:	12 c3       	clrc			
    617c:	0c 10       	rrc	r12		;
    617e:	1c 53       	inc	r12		;
    6180:	84 4c ea ff 	mov	r12,	-22(r4)	; 0xffea
    6184:	94 43 e8 ff 	mov	#1,	-24(r4)	;r3 As==01, 0xffe8
    6188:	00 3c       	jmp	$+2      	;abs 0x618a
    618a:	1c 44 e8 ff 	mov	-24(r4),r12	;0xffffffe8
    618e:	1d 44 ea ff 	mov	-22(r4),r13	;0xffffffea
    6192:	0c 9d       	cmp	r13,	r12	;
    6194:	10 2c       	jc	$+34     	;abs 0x61b6
    6196:	00 3c       	jmp	$+2      	;abs 0x6198
    6198:	1c 42 d8 53 	mov	&0x53d8,r12	;0x53d8
    619c:	1d 44 e8 ff 	mov	-24(r4),r13	;0xffffffe8
    61a0:	0c 5d       	add	r13,	r12	;
    61a2:	0c 5c       	rla	r12		;
    61a4:	8c 43 f8 53 	mov	#0,	21496(r12);r3 As==00, 0x53f8
    61a8:	00 3c       	jmp	$+2      	;abs 0x61aa
    61aa:	1c 44 e8 ff 	mov	-24(r4),r12	;0xffffffe8
    61ae:	1c 53       	inc	r12		;
    61b0:	84 4c e8 ff 	mov	r12,	-24(r4)	; 0xffe8
    61b4:	ea 3f       	jmp	$-42     	;abs 0x618a
    61b6:	1c 44 ea ff 	mov	-22(r4),r12	;0xffffffea
    61ba:	1d 42 d8 53 	mov	&0x53d8,r13	;0x53d8
    61be:	0d 5c       	add	r12,	r13	;
    61c0:	82 4d d8 53 	mov	r13,	&0x53d8	;
    61c4:	06 3c       	jmp	$+14     	;abs 0x61d2
    61c6:	1c 42 d8 53 	mov	&0x53d8,r12	;0x53d8
    61ca:	1c 53       	inc	r12		;
    61cc:	82 4c d8 53 	mov	r12,	&0x53d8	;
    61d0:	00 3c       	jmp	$+2      	;abs 0x61d2
    61d2:	31 50 18 00 	add	#24,	r1	;#0x0018
    61d6:	34 41       	pop	r4		;
    61d8:	30 41       	ret			
	...

000061dc <main>:
    61dc:	04 12       	push	r4		;
    61de:	04 41       	mov	r1,	r4	;
    61e0:	21 83       	decd	r1		;
    61e2:	84 43 fe ff 	mov	#0,	-2(r4)	;r3 As==00, 0xfffe
    61e6:	b0 12 d0 5d 	call	#24016		;#0x5dd0
    61ea:	1c 42 f6 53 	mov	&0x53f6,r12	;0x53f6
    61ee:	1c 53       	inc	r12		;
    61f0:	82 4c f6 53 	mov	r12,	&0x53f6	;
    61f4:	b0 12 00 5e 	call	#24064		;#0x5e00
    61f8:	1c 42 f4 53 	mov	&0x53f4,r12	;0x53f4
    61fc:	2c 4c       	mov	@r12,	r12	;
    61fe:	2c 4c       	mov	@r12,	r12	;
    6200:	00 4c       	br	r12		;
    6202:	0f 43       	clr	r15		;
    6204:	21 53       	incd	r1		;
    6206:	34 41       	pop	r4		;
    6208:	30 41       	ret			
	...

0000620c <msp_clock_setup>:
    620c:	04 12       	push	r4		;
    620e:	04 41       	mov	r1,	r4	;
    6210:	f2 40 a5 ff 	mov.b	#65445,	&0x0161	;#0xffa5
    6214:	61 01 
    6216:	b2 40 0c 00 	mov	#12,	&0x0162	;#0x000c
    621a:	62 01 
    621c:	b2 40 33 00 	mov	#51,	&0x0164	;#0x0033
    6220:	64 01 
    6222:	82 43 66 01 	mov	#0,	&0x0166	;r3 As==00
    6226:	34 41       	pop	r4		;
    6228:	30 41       	ret			
	...

0000622c <msp_watchdog_enable>:
    622c:	04 12       	push	r4		;
    622e:	04 41       	mov	r1,	r4	;
    6230:	21 83       	decd	r1		;
    6232:	4c 4f       	mov.b	r15,	r12	;
    6234:	c4 4c ff ff 	mov.b	r12,	-1(r4)	; 0xffff
    6238:	5f 44 ff ff 	mov.b	-1(r4),	r15	;
    623c:	3f d0 08 5a 	bis	#23048,	r15	;#0x5a08
    6240:	82 4f 5c 01 	mov	r15,	&0x015c	;
    6244:	5c 44 ff ff 	mov.b	-1(r4),	r12	;
    6248:	c2 4c 20 1c 	mov.b	r12,	&0x1c20	;
    624c:	21 53       	incd	r1		;
    624e:	34 41       	pop	r4		;
    6250:	30 41       	ret			
	...

00006254 <msp_watchdog_disable>:
    6254:	04 12       	push	r4		;
    6256:	04 41       	mov	r1,	r4	;
    6258:	b2 40 80 5a 	mov	#23168,	&0x015c	;#0x5a80
    625c:	5c 01 
    625e:	34 41       	pop	r4		;
    6260:	30 41       	ret			
	...

00006264 <msp_watchdog_kick>:
    6264:	04 12       	push	r4		;
    6266:	04 41       	mov	r1,	r4	;
    6268:	5c 42 20 1c 	mov.b	&0x1c20,r12	;0x1c20
    626c:	3c d0 08 5a 	bis	#23048,	r12	;#0x5a08
    6270:	82 4c 5c 01 	mov	r12,	&0x015c	;
    6274:	34 41       	pop	r4		;
    6276:	30 41       	ret			

00006278 <memcpy>:
    6278:	04 12       	push	r4		;
    627a:	04 41       	mov	r1,	r4	;
    627c:	0b 12       	push	r11		;
    627e:	0a 12       	push	r10		;
    6280:	31 80 0e 00 	sub	#14,	r1	;#0x000e
    6284:	0c 4d       	mov	r13,	r12	;
    6286:	0b 4e       	mov	r14,	r11	;
    6288:	0a 4f       	mov	r15,	r10	;
    628a:	84 4f fa ff 	mov	r15,	-6(r4)	; 0xfffa
    628e:	84 4e f8 ff 	mov	r14,	-8(r4)	; 0xfff8
    6292:	84 4d f6 ff 	mov	r13,	-10(r4)	; 0xfff6
    6296:	84 43 f4 ff 	mov	#0,	-12(r4)	;r3 As==00, 0xfff4
    629a:	84 4c f2 ff 	mov	r12,	-14(r4)	; 0xfff2
    629e:	84 4b f0 ff 	mov	r11,	-16(r4)	; 0xfff0
    62a2:	84 4a ee ff 	mov	r10,	-18(r4)	; 0xffee
    62a6:	00 3c       	jmp	$+2      	;abs 0x62a8
    62a8:	1c 44 f4 ff 	mov	-12(r4),r12	;0xfffffff4
    62ac:	1d 44 f6 ff 	mov	-10(r4),r13	;0xfffffff6
    62b0:	0c 9d       	cmp	r13,	r12	;
    62b2:	12 2c       	jc	$+38     	;abs 0x62d8
    62b4:	00 3c       	jmp	$+2      	;abs 0x62b6
    62b6:	1c 44 f8 ff 	mov	-8(r4),	r12	;
    62ba:	1d 44 f4 ff 	mov	-12(r4),r13	;0xfffffff4
    62be:	0c 5d       	add	r13,	r12	;
    62c0:	6e 4c       	mov.b	@r12,	r14	;
    62c2:	1c 44 fa ff 	mov	-6(r4),	r12	;
    62c6:	0c 5d       	add	r13,	r12	;
    62c8:	cc 4e 00 00 	mov.b	r14,	0(r12)	;
    62cc:	1c 44 f4 ff 	mov	-12(r4),r12	;0xfffffff4
    62d0:	1c 53       	inc	r12		;
    62d2:	84 4c f4 ff 	mov	r12,	-12(r4)	; 0xfff4
    62d6:	e8 3f       	jmp	$-46     	;abs 0x62a8
    62d8:	1f 44 fa ff 	mov	-6(r4),	r15	;
    62dc:	31 50 0e 00 	add	#14,	r1	;#0x000e
    62e0:	3a 41       	pop	r10		;
    62e2:	3b 41       	pop	r11		;
    62e4:	34 41       	pop	r4		;
    62e6:	30 41       	ret			

000062e8 <msp_rand>:
    62e8:	04 12       	push	r4		;
    62ea:	04 41       	mov	r1,	r4	;
    62ec:	1f 42 be 54 	mov	&0x54be,r15	;0x54be
    62f0:	3e 40 6d 4e 	mov	#20077,	r14	;#0x4e6d
    62f4:	b0 12 1c 63 	call	#25372		;#0x631c
    62f8:	3f 50 39 30 	add	#12345,	r15	;#0x3039
    62fc:	82 4f be 54 	mov	r15,	&0x54be	;
    6300:	1e 42 be 54 	mov	&0x54be,r14	;0x54be
    6304:	12 c3       	clrc			
    6306:	0e 10       	rrc	r14		;
    6308:	0e 11       	rra	r14		;
    630a:	0e 11       	rra	r14		;
    630c:	0e 11       	rra	r14		;
    630e:	0e 11       	rra	r14		;
    6310:	0e 11       	rra	r14		;
    6312:	0e 11       	rra	r14		;
    6314:	0e 11       	rra	r14		;
    6316:	0f 4e       	mov	r14,	r15	;
    6318:	34 41       	pop	r4		;
    631a:	30 41       	ret			

0000631c <__mulhi3hw_noint>:
    631c:	82 4f c0 04 	mov	r15,	&0x04c0	;
    6320:	82 4e c8 04 	mov	r14,	&0x04c8	;
    6324:	1f 42 ca 04 	mov	&0x04ca,r15	;0x04ca
    6328:	30 41       	ret			

0000632a <WISP_init>:
 *  @section    Considerations
 *      -# If preforming a 'sleep_till_full_power' operation,
 */
void WISP_init(void) {

	WDTCTL = WDTPW | WDTHOLD;	// Stop watchdog timer
    632a:	b2 40 80 5a 	mov	#23168,	&0x015c	;#0x5a80
    632e:	5c 01 

	// Disable the GPIO power-on default high-impedance mode to activate previously configured port settings.
	PM5CTL0 &= ~LOCKLPM5;		// Lock LPM5.
    6330:	92 c3 30 01 	bic	#1,	&0x0130	;r3 As==01

	// Disable FRAM wait cycles to allow clock operation over 8MHz
	FRCTL0 = 0xA500 | ((1) << 4);  //FRCTLPW | NWAITS_1;
    6334:	b2 40 10 a5 	mov	#42256,	&0x0140	;#0xa510
    6338:	40 01 

	// Setup default IO
	setupDflt_IO();
    633a:	c2 43 02 02 	mov.b	#0,	&0x0202	;r3 As==00
    633e:	c2 43 03 02 	mov.b	#0,	&0x0203	;r3 As==00
    6342:	c2 43 22 02 	mov.b	#0,	&0x0222	;r3 As==00
    6346:	c2 43 23 02 	mov.b	#0,	&0x0223	;r3 As==00
    634a:	82 43 22 03 	mov	#0,	&0x0322	;r3 As==00
    634e:	c2 43 04 02 	mov.b	#0,	&0x0204	;r3 As==00
    6352:	b2 40 40 00 	mov	#64,	&0x0324	;#0x0040
    6356:	24 03 
    6358:	f2 40 80 ff 	mov.b	#65408,	&0x0205	;#0xff80
    635c:	05 02 
    635e:	c2 43 24 02 	mov.b	#0,	&0x0224	;r3 As==00
    6362:	f2 40 0d 00 	mov.b	#13,	&0x0225	;#0x000d
    6366:	25 02 

    PRXEOUT |= PIN_RX_EN; /** TODO: enable PIN_RX_EN only when needed in the future */
    6368:	f2 d0 20 00 	bis.b	#32,	&0x0223	;#0x0020
    636c:	23 02 

    CSCTL0_H = 0xA5;
    636e:	f2 40 a5 ff 	mov.b	#65445,	&0x0161	;#0xffa5
    6372:	61 01 
    CSCTL1 = DCORSEL + DCOFSEL_3; //8MHz
    6374:	b2 40 46 00 	mov	#70,	&0x0162	;#0x0046
    6378:	62 01 
    CSCTL2 = SELA_0 + SELM_3;
    637a:	b2 40 03 00 	mov	#3,	&0x0164	;
    637e:	64 01 
    CSCTL2 |= SELS_3;
    6380:	b2 d0 30 00 	bis	#48,	&0x0164	;#0x0030
    6384:	64 01 
    CSCTL3 = DIVA_0 + DIVS_0 + DIVM_0;
    6386:	82 43 66 01 	mov	#0,	&0x0166	;r3 As==00

    // Initialize Gen2 standard memory banks
    RWData.EPCBankPtr = &dataBuf[0];                    // volatile
    638a:	3c 40 30 1c 	mov	#7216,	r12	;#0x1c30
    638e:	bc 40 48 1c 	mov	#7240,	18(r12)	;#0x1c48, 0x0012
    6392:	12 00 
    RWData.RESBankPtr = (uint8_t*) MEM_MAP_INFOC_START; // nonvolatile
    6394:	bc 40 80 18 	mov	#6272,	16(r12)	;#0x1880, 0x0010
    6398:	10 00 
    RWData.TIDBankPtr = (uint8_t*) MEM_MAP_INFOB_START; // nonvolatile
    639a:	bc 40 00 19 	mov	#6400,	20(r12)	;#0x1900, 0x0014
    639e:	14 00 
    RWData.USRBankPtr = (uint8_t*) &usrBank[0];         // volatile
    63a0:	bc 40 be 1c 	mov	#7358,	22(r12)	;#0x1cbe, 0x0016
    63a4:	16 00 

    // Initialize rfid transaction mode
    rfid.isSelected = TRUE;
    63a6:	3d 40 22 1c 	mov	#7202,	r13	;#0x1c22
    63aa:	dd 43 0a 00 	mov.b	#1,	10(r13)	;r3 As==01, 0x000a
    rfid.abortOn    = 0x00;
    63ae:	cd 43 08 00 	mov.b	#0,	8(r13)	;r3 As==00

    isDoingLowPwrSleep = FALSE;
    63b2:	c2 43 58 1c 	mov.b	#0,	&0x1c58	;r3 As==00

    // Initialize callbacks to null in case user doesn't configure them
    RWData.akHook =0;
    63b6:	8c 43 08 00 	mov	#0,	8(r12)	;r3 As==00
    RWData.rdHook= 0;
    63ba:	8c 43 0e 00 	mov	#0,	14(r12)	;r3 As==00, 0x000e
    RWData.wrHook =0;
    63be:	8c 43 0a 00 	mov	#0,	10(r12)	;r3 As==00, 0x000a
    RWData.bwrHook=0;
    63c2:	8c 43 0c 00 	mov	#0,	12(r12)	;r3 As==00, 0x000c

    return;
}
    63c6:	30 41       	ret			

000063c8 <WISP_getDataBuffers>:

uint8_t usrBank[USRBANK_SIZE];

// Client access to RFID data buffers.
void WISP_getDataBuffers(WISP_dataStructInterface_t* clientStruct) {
	clientStruct->epcBuf=&dataBuf[2];
    63c8:	bc 40 4a 1c 	mov	#7242,	0(r12)	;#0x1c4a
    63cc:	00 00 
	clientStruct->writeBufPtr=&(RWData.wrData);
    63ce:	bc 40 32 1c 	mov	#7218,	2(r12)	;#0x1c32
    63d2:	02 00 
	clientStruct->blockWriteBufPtr=RWData.bwrBufPtr;
    63d4:	3d 40 30 1c 	mov	#7216,	r13	;#0x1c30
    63d8:	9c 4d 06 00 	mov	6(r13),	4(r12)	;
    63dc:	04 00 
	clientStruct->blockWriteSizePtr=&(RWData.bwrByteCount);
    63de:	2d 52       	add	#4,	r13	;r2 As==10
    63e0:	8c 4d 06 00 	mov	r13,	6(r12)	;
	clientStruct->readBufPtr=&usrBank[0];
    63e4:	bc 40 be 1c 	mov	#7358,	8(r12)	;#0x1cbe
    63e8:	08 00 
}
    63ea:	30 41       	ret			

000063ec <WISP_registerCallback_ACK>:

/**
 *  Registers a callback for ACK event
 */
void WISP_registerCallback_ACK(void(*fnPtr)(void)){
	RWData.akHook = fnPtr;
    63ec:	82 4c 38 1c 	mov	r12,	&0x1c38	;
}
    63f0:	30 41       	ret			

000063f2 <WISP_registerCallback_READ>:

/**
 * Registers a callback for READ event
 */
void WISP_registerCallback_READ(void(*fnPtr)(void)){
	RWData.rdHook = fnPtr;
    63f2:	82 4c 3e 1c 	mov	r12,	&0x1c3e	;
}
    63f6:	30 41       	ret			

000063f8 <WISP_registerCallback_WRITE>:

/**
 * Registers a callback for a WRITE event
 */
void WISP_registerCallback_WRITE(void(*fnPtr)(void)){
	RWData.wrHook = fnPtr;
    63f8:	82 4c 3a 1c 	mov	r12,	&0x1c3a	;
}
    63fc:	30 41       	ret			

000063fe <WISP_registerCallback_BLOCKWRITE>:

/**
 * Registers a callback for a BLOCKWRITE event
 */
void WISP_registerCallback_BLOCKWRITE(void(*fnPtr)(void)){
	RWData.bwrHook =fnPtr;
    63fe:	82 4c 3c 1c 	mov	r12,	&0x1c3c	;
}
    6402:	30 41       	ret			

00006404 <WISP_setMode>:

/**
 * Sets mode parameters for the RFID state machine
 */
void WISP_setMode(uint8_t mode) {
	rfid.mode = mode;
    6404:	c2 4c 29 1c 	mov.b	r12,	&0x1c29	;
}
    6408:	30 41       	ret			

0000640a <WISP_setAbortConditions>:
/**
 * Sets abort conditions for the RFID state machine. This dictates when
 * WISP comm code will abort and return control to client code.
 */
void WISP_setAbortConditions(uint8_t abortOn) {
	rfid.abortOn = abortOn;
    640a:	c2 4c 2a 1c 	mov.b	r12,	&0x1c2a	;
}
    640e:	30 41       	ret			

00006410 <memmove>:
    6410:	0a 15       	pushm	#1,	r10	;16-bit words
    6412:	0d 9c       	cmp	r12,	r13	;
    6414:	10 2c       	jc	$+34     	;abs 0x6436
    6416:	0b 4d       	mov	r13,	r11	;
    6418:	0b 5e       	add	r14,	r11	;
    641a:	0c 9b       	cmp	r11,	r12	;
    641c:	0c 2c       	jc	$+26     	;abs 0x6436
    641e:	0d 4e       	mov	r14,	r13	;
    6420:	3d 53       	add	#-1,	r13	;r3 As==11
    6422:	3d 93       	cmp	#-1,	r13	;r3 As==11
    6424:	13 24       	jz	$+40     	;abs 0x644c
    6426:	0f 4d       	mov	r13,	r15	;
    6428:	0f 8e       	sub	r14,	r15	;
    642a:	0f 5b       	add	r11,	r15	;
    642c:	0a 4c       	mov	r12,	r10	;
    642e:	0a 5d       	add	r13,	r10	;
    6430:	ea 4f 00 00 	mov.b	@r15,	0(r10)	;
    6434:	f5 3f       	jmp	$-20     	;abs 0x6420
    6436:	0f 43       	clr	r15		;
    6438:	0f 9e       	cmp	r14,	r15	;
    643a:	08 24       	jz	$+18     	;abs 0x644c
    643c:	0a 4d       	mov	r13,	r10	;
    643e:	0a 5f       	add	r15,	r10	;
    6440:	0b 4c       	mov	r12,	r11	;
    6442:	0b 5f       	add	r15,	r11	;
    6444:	eb 4a 00 00 	mov.b	@r10,	0(r11)	;
    6448:	1f 53       	inc	r15		;
    644a:	f6 3f       	jmp	$-18     	;abs 0x6438
    644c:	0a 17       	popm	#1,	r10	;16-bit words
    644e:	30 41       	ret			

00006450 <memset>:
    6450:	0f 4c       	mov	r12,	r15	;
    6452:	0e 5c       	add	r12,	r14	;
    6454:	0f 9e       	cmp	r14,	r15	;
    6456:	04 24       	jz	$+10     	;abs 0x6460
    6458:	cf 4d 00 00 	mov.b	r13,	0(r15)	;
    645c:	1f 53       	inc	r15		;
    645e:	fa 3f       	jmp	$-10     	;abs 0x6454
    6460:	30 41       	ret			

00006462 <__do_global_ctors_aux>:
    6462:	0a 15       	pushm	#1,	r10	;16-bit words
    6464:	1c 42 08 44 	mov	&0x4408,r12	;0x4408
    6468:	3c 93       	cmp	#-1,	r12	;r3 As==11
    646a:	08 24       	jz	$+18     	;abs 0x647c
    646c:	3a 40 08 44 	mov	#17416,	r10	;#0x4408
    6470:	8c 12       	call	r12		;
    6472:	3a 50 fe ff 	add	#65534,	r10	;#0xfffe
    6476:	2c 4a       	mov	@r10,	r12	;
    6478:	3c 93       	cmp	#-1,	r12	;r3 As==11
    647a:	fa 23       	jnz	$-10     	;abs 0x6470
    647c:	0a 17       	popm	#1,	r10	;16-bit words
    647e:	30 41       	ret			

00006480 <call___do_global_ctors_aux>:
    6480:	30 41       	ret			

00006482 <__msp430_init>:
    6482:	b0 12 c4 55 	call	#21956		;#0x55c4
    6486:	b0 12 62 64 	call	#25698		;#0x6462
    648a:	b0 12 04 55 	call	#21764		;#0x5504
    648e:	b0 12 f8 54 	call	#21752		;#0x54f8
    6492:	30 41       	ret			

00006494 <__msp430_fini>:
    6494:	b0 12 10 55 	call	#21776		;#0x5510
    6498:	b0 12 76 55 	call	#21878		;#0x5576
    649c:	30 41       	ret			

templog.out:     file format elf32-msp430


Disassembly of section __interrupt_vector_49:

0000fff0 <__interrupt_vector_49>:
    fff0:	b0 6d       	interrupt service routine at 0x6db0

Disassembly of section .text:

000055b0 <__crt0_start>:
    55b0:	31 40 00 24 	mov	#9216,	r1	;#0x2400

000055b4 <__crt0_init_bss>:
    55b4:	3c 40 04 1c 	mov	#7172,	r12	;#0x1c04
    55b8:	0d 43       	clr	r13		;
    55ba:	3e 40 2a 00 	mov	#42,	r14	;#0x002a
    55be:	b0 12 74 6e 	call	#28276		;#0x6e74

000055c2 <__crt0_movedata>:
    55c2:	3c 40 00 1c 	mov	#7168,	r12	;#0x1c00
    55c6:	3d 40 aa 55 	mov	#21930,	r13	;#0x55aa
    55ca:	0d 9c       	cmp	r12,	r13	;
    55cc:	04 24       	jz	$+10     	;abs 0x55d6
    55ce:	3e 40 04 00 	mov	#4,	r14	;
    55d2:	b0 12 34 6e 	call	#28212		;#0x6e34

000055d6 <__crt0_call_init_then_main>:
    55d6:	b0 12 a6 6e 	call	#28326		;#0x6ea6
    55da:	0c 43       	clr	r12		;
    55dc:	b0 12 b8 6b 	call	#27576		;#0x6bb8

000055e0 <_msp430_run_init_array>:
    55e0:	34 40 f0 44 	mov	#17648,	r4	;#0x44f0
    55e4:	35 40 f0 44 	mov	#17648,	r5	;#0x44f0
    55e8:	26 43       	mov	#2,	r6	;r3 As==10
    55ea:	0d 3c       	jmp	$+28     	;abs 0x5606

000055ec <_msp430_run_preinit_array>:
    55ec:	34 40 f0 44 	mov	#17648,	r4	;#0x44f0
    55f0:	35 40 f0 44 	mov	#17648,	r5	;#0x44f0
    55f4:	26 43       	mov	#2,	r6	;r3 As==10
    55f6:	07 3c       	jmp	$+16     	;abs 0x5606

000055f8 <_msp430_run_fini_array>:
    55f8:	34 40 f0 44 	mov	#17648,	r4	;#0x44f0
    55fc:	35 40 f0 44 	mov	#17648,	r5	;#0x44f0
    5600:	36 40 fe ff 	mov	#65534,	r6	;#0xfffe
    5604:	00 3c       	jmp	$+2      	;abs 0x5606

00005606 <_msp430_run_array>:
    5606:	05 94       	cmp	r4,	r5	;
    5608:	05 24       	jz	$+12     	;abs 0x5614
    560a:	27 44       	mov	@r4,	r7	;
    560c:	04 56       	add	r6,	r4	;
    560e:	a7 12       	call	@r7		;
    5610:	10 40 f4 ff 	br	0xfff4		;PC rel. 0x5606

00005614 <_msp430_run_done>:
    5614:	30 41       	ret			

00005616 <deregister_tm_clones>:
    5616:	3c 40 c2 6e 	mov	#28354,	r12	;#0x6ec2
    561a:	3c 80 c1 6e 	sub	#28353,	r12	;#0x6ec1
    561e:	2d 43       	mov	#2,	r13	;r3 As==10
    5620:	0d 9c       	cmp	r12,	r13	;
    5622:	07 2c       	jc	$+16     	;abs 0x5632
    5624:	3d 40 00 00 	mov	#0,	r13	;
    5628:	0d 93       	cmp	#0,	r13	;r3 As==00
    562a:	03 24       	jz	$+8      	;abs 0x5632
    562c:	3c 40 c2 6e 	mov	#28354,	r12	;#0x6ec2
    5630:	8d 12       	call	r13		;
    5632:	30 41       	ret			

00005634 <register_tm_clones>:
    5634:	3d 40 c2 6e 	mov	#28354,	r13	;#0x6ec2
    5638:	3d 80 c2 6e 	sub	#28354,	r13	;#0x6ec2
    563c:	0d 11       	rra	r13		;
    563e:	0c 4d       	mov	r13,	r12	;
    5640:	5c 03       	rrum	#1,	r12	;
    5642:	4d 18 0c 11 	rpt #14 { rrax.w	r12		;
    5646:	0d 5c       	add	r12,	r13	;
    5648:	0d 11       	rra	r13		;
    564a:	0d 93       	cmp	#0,	r13	;r3 As==00
    564c:	07 24       	jz	$+16     	;abs 0x565c
    564e:	3e 40 00 00 	mov	#0,	r14	;
    5652:	0e 93       	cmp	#0,	r14	;r3 As==00
    5654:	03 24       	jz	$+8      	;abs 0x565c
    5656:	3c 40 c2 6e 	mov	#28354,	r12	;#0x6ec2
    565a:	8e 12       	call	r14		;
    565c:	30 41       	ret			

0000565e <__do_global_dtors_aux>:
    565e:	0a 15       	pushm	#1,	r10	;16-bit words
    5660:	c2 93 04 1c 	cmp.b	#0,	&0x1c04	;r3 As==00
    5664:	20 20       	jnz	$+66     	;abs 0x56a6
    5666:	1c 42 06 1c 	mov	&0x1c06,r12	;0x1c06
    566a:	3a 40 fa 44 	mov	#17658,	r10	;#0x44fa
    566e:	3a 80 f8 44 	sub	#17656,	r10	;#0x44f8
    5672:	0a 11       	rra	r10		;
    5674:	3a 53       	add	#-1,	r10	;r3 As==11
    5676:	0c 9a       	cmp	r10,	r12	;
    5678:	0b 2c       	jc	$+24     	;abs 0x5690
    567a:	1c 53       	inc	r12		;
    567c:	82 4c 06 1c 	mov	r12,	&0x1c06	;
    5680:	0c 5c       	rla	r12		;
    5682:	1c 4c f8 44 	mov	17656(r12),r12	;0x044f8
    5686:	8c 12       	call	r12		;
    5688:	1c 42 06 1c 	mov	&0x1c06,r12	;0x1c06
    568c:	0c 9a       	cmp	r10,	r12	;
    568e:	f5 2b       	jnc	$-20     	;abs 0x567a
    5690:	b0 12 16 56 	call	#22038		;#0x5616
    5694:	3d 40 00 00 	mov	#0,	r13	;
    5698:	0d 93       	cmp	#0,	r13	;r3 As==00
    569a:	03 24       	jz	$+8      	;abs 0x56a2
    569c:	3c 40 ec 44 	mov	#17644,	r12	;#0x44ec
    56a0:	8d 12       	call	r13		;
    56a2:	d2 43 04 1c 	mov.b	#1,	&0x1c04	;r3 As==01
    56a6:	0a 17       	popm	#1,	r10	;16-bit words
    56a8:	30 41       	ret			

000056aa <call___do_global_dtors_aux>:
    56aa:	30 41       	ret			

000056ac <frame_dummy>:
    56ac:	3e 40 00 00 	mov	#0,	r14	;
    56b0:	0e 93       	cmp	#0,	r14	;r3 As==00
    56b2:	05 24       	jz	$+12     	;abs 0x56be
    56b4:	3c 40 ec 44 	mov	#17644,	r12	;#0x44ec
    56b8:	3d 40 08 1c 	mov	#7176,	r13	;#0x1c08
    56bc:	8e 12       	call	r14		;
    56be:	3c 40 00 1c 	mov	#7168,	r12	;#0x1c00
    56c2:	8c 93 00 00 	cmp	#0,	0(r12)	;r3 As==00
    56c6:	03 20       	jnz	$+8      	;abs 0x56ce
    56c8:	b0 12 34 56 	call	#22068		;#0x5634
    56cc:	30 41       	ret			
    56ce:	3d 40 00 00 	mov	#0,	r13	;
    56d2:	0d 93       	cmp	#0,	r13	;r3 As==00
    56d4:	f9 27       	jz	$-12     	;abs 0x56c8
    56d6:	8d 12       	call	r13		;
    56d8:	f7 3f       	jmp	$-16     	;abs 0x56c8

000056da <call_frame_dummy>:
    56da:	30 41       	ret			

000056dc <TimerB1_ISR>:
    56dc:	04 12       	push	r4		;
    56de:	04 41       	mov	r1,	r4	;
    56e0:	0c 12       	push	r12		;
    56e2:	1c 42 c0 03 	mov	&0x03c0,r12	;0x03c0
    56e6:	3c f0 fd ff 	and	#65533,	r12	;#0xfffd
    56ea:	82 4c c0 03 	mov	r12,	&0x03c0	;
    56ee:	1c 42 c0 03 	mov	&0x03c0,r12	;0x03c0
    56f2:	0c 93       	cmp	#0,	r12	;r3 As==00
    56f4:	17 24       	jz	$+48     	;abs 0x5724
    56f6:	00 3c       	jmp	$+2      	;abs 0x56f8
    56f8:	1c 42 16 1c 	mov	&0x1c16,r12	;0x1c16
    56fc:	1c 53       	inc	r12		;
    56fe:	82 4c 16 1c 	mov	r12,	&0x1c16	;
    5702:	1c 42 c0 03 	mov	&0x03c0,r12	;0x03c0
    5706:	2c d2       	bis	#4,	r12	;r2 As==10
    5708:	82 4c c0 03 	mov	r12,	&0x03c0	;
    570c:	1c 42 c0 03 	mov	&0x03c0,r12	;0x03c0
    5710:	2c d3       	bis	#2,	r12	;r3 As==10
    5712:	82 4c c0 03 	mov	r12,	&0x03c0	;
    5716:	1c 42 c0 03 	mov	&0x03c0,r12	;0x03c0
    571a:	3c f0 fe ff 	and	#65534,	r12	;#0xfffe
    571e:	82 4c c0 03 	mov	r12,	&0x03c0	;
    5722:	00 3c       	jmp	$+2      	;abs 0x5724
    5724:	3c 41       	pop	r12		;
    5726:	34 41       	pop	r4		;
    5728:	00 13       	reti			
	...

0000572c <init>:
    572c:	04 12       	push	r4		;
    572e:	04 41       	mov	r1,	r4	;
    5730:	21 82       	sub	#4,	r1	;r2 As==10
    5732:	1c 42 c0 03 	mov	&0x03c0,r12	;0x03c0
    5736:	3c f0 ff e6 	and	#59135,	r12	;#0xe6ff
    573a:	82 4c c0 03 	mov	r12,	&0x03c0	;
    573e:	1c 42 c0 03 	mov	&0x03c0,r12	;0x03c0
    5742:	3c d0 00 02 	bis	#512,	r12	;#0x0200
    5746:	82 4c c0 03 	mov	r12,	&0x03c0	;
    574a:	1c 42 c0 03 	mov	&0x03c0,r12	;0x03c0
    574e:	3c d0 c0 00 	bis	#192,	r12	;#0x00c0
    5752:	82 4c c0 03 	mov	r12,	&0x03c0	;
    5756:	1c 42 c0 03 	mov	&0x03c0,r12	;0x03c0
    575a:	3c f0 ef ff 	and	#65519,	r12	;#0xffef
    575e:	82 4c c0 03 	mov	r12,	&0x03c0	;
    5762:	1c 42 c0 03 	mov	&0x03c0,r12	;0x03c0
    5766:	3c d0 20 00 	bis	#32,	r12	;#0x0020
    576a:	82 4c c0 03 	mov	r12,	&0x03c0	;
    576e:	1c 42 c0 03 	mov	&0x03c0,r12	;0x03c0
    5772:	2c d3       	bis	#2,	r12	;r3 As==10
    5774:	82 4c c0 03 	mov	r12,	&0x03c0	;
    5778:	b0 12 98 61 	call	#24984		;#0x6198
    577c:	5c 42 04 02 	mov.b	&0x0204,r12	;0x0204
    5780:	2c d3       	bis	#2,	r12	;r3 As==10
    5782:	4d 4c       	mov.b	r12,	r13	;
    5784:	c2 4d 04 02 	mov.b	r13,	&0x0204	;
    5788:	5c 42 04 02 	mov.b	&0x0204,r12	;0x0204
    578c:	2c d2       	bis	#4,	r12	;r2 As==10
    578e:	4d 4c       	mov.b	r12,	r13	;
    5790:	c2 4d 04 02 	mov.b	r13,	&0x0204	;
    5794:	5c 42 04 02 	mov.b	&0x0204,r12	;0x0204
    5798:	1c d3       	bis	#1,	r12	;r3 As==01
    579a:	4d 4c       	mov.b	r12,	r13	;
    579c:	c2 4d 04 02 	mov.b	r13,	&0x0204	;
    57a0:	b0 12 18 67 	call	#26392		;#0x6718
    57a4:	0c 41       	mov	r1,	r12	;
    57a6:	bc 40 00 44 	mov	#17408,	0(r12)	;#0x4400
    57aa:	00 00 
    57ac:	b0 12 b4 62 	call	#25268		;#0x62b4
    57b0:	84 4f fe ff 	mov	r15,	-2(r4)	; 0xfffe
    57b4:	00 3c       	jmp	$+2      	;abs 0x57b6
    57b6:	ff 3f       	jmp	$+0      	;abs 0x57b6

000057b8 <task_init>:
    57b8:	04 12       	push	r4		;
    57ba:	04 41       	mov	r1,	r4	;
    57bc:	21 82       	sub	#4,	r1	;r2 As==10
    57be:	0c 41       	mov	r1,	r12	;
    57c0:	bc 40 00 44 	mov	#17408,	0(r12)	;#0x4400
    57c4:	00 00 
    57c6:	b0 12 b4 62 	call	#25268		;#0x62b4
    57ca:	82 43 f4 46 	mov	#0,	&0x46f4	;r3 As==00
    57ce:	82 43 f6 46 	mov	#0,	&0x46f6	;r3 As==00
    57d2:	82 43 f8 46 	mov	#0,	&0x46f8	;r3 As==00
    57d6:	82 43 fa 46 	mov	#0,	&0x46fa	;r3 As==00
    57da:	82 43 fc 46 	mov	#0,	&0x46fc	;r3 As==00
    57de:	92 43 fe 46 	mov	#1,	&0x46fe	;r3 As==01
    57e2:	3c 40 26 45 	mov	#17702,	r12	;#0x4526
    57e6:	84 4f fe ff 	mov	r15,	-2(r4)	; 0xfffe
    57ea:	0f 4c       	mov	r12,	r15	;
    57ec:	b0 12 88 68 	call	#26760		;#0x6888
    57f0:	21 52       	add	#4,	r1	;r2 As==10
    57f2:	34 41       	pop	r4		;
    57f4:	30 41       	ret			
	...

000057f8 <task_init_dict>:
    57f8:	04 12       	push	r4		;
    57fa:	04 41       	mov	r1,	r4	;
    57fc:	31 80 0a 00 	sub	#10,	r1	;#0x000a
    5800:	1c 42 f8 46 	mov	&0x46f8,r12	;0x46f8
    5804:	84 4c fe ff 	mov	r12,	-2(r4)	; 0xfffe
    5808:	84 4c f8 ff 	mov	r12,	-8(r4)	; 0xfff8
    580c:	84 43 fa ff 	mov	#0,	-6(r4)	;r3 As==00, 0xfffa
    5810:	84 43 fc ff 	mov	#0,	-4(r4)	;r3 As==00, 0xfffc
    5814:	1c 44 fe ff 	mov	-2(r4),	r12	;
    5818:	84 4c f6 ff 	mov	r12,	-10(r4)	; 0xfff6
    581c:	3e 40 06 00 	mov	#6,	r14	;
    5820:	0f 4c       	mov	r12,	r15	;
    5822:	b0 12 e8 6b 	call	#27624		;#0x6be8
    5826:	1c 44 fc ff 	mov	-4(r4),	r12	;
    582a:	8f 4c 04 47 	mov	r12,	18180(r15); 0x4704
    582e:	1c 44 fa ff 	mov	-6(r4),	r12	;
    5832:	8f 4c 02 47 	mov	r12,	18178(r15); 0x4702
    5836:	1c 44 f8 ff 	mov	-8(r4),	r12	;
    583a:	8f 4c 00 47 	mov	r12,	18176(r15); 0x4700
    583e:	1c 44 fe ff 	mov	-2(r4),	r12	;
    5842:	1c 53       	inc	r12		;
    5844:	84 4c fe ff 	mov	r12,	-2(r4)	; 0xfffe
    5848:	3c 90 00 01 	cmp	#256,	r12	;#0x0100
    584c:	0d 2c       	jc	$+28     	;abs 0x5868
    584e:	00 3c       	jmp	$+2      	;abs 0x5850
    5850:	3e 40 f8 46 	mov	#18168,	r14	;#0x46f8
    5854:	0f 44       	mov	r4,	r15	;
    5856:	2f 83       	decd	r15		;
    5858:	2d 43       	mov	#2,	r13	;r3 As==10
    585a:	b0 12 e8 69 	call	#27112		;#0x69e8
    585e:	3f 40 26 45 	mov	#17702,	r15	;#0x4526
    5862:	b0 12 88 68 	call	#26760		;#0x6888
    5866:	0f 3c       	jmp	$+32     	;abs 0x5886
    5868:	b2 40 00 01 	mov	#256,	&0x5300	;#0x0100
    586c:	00 53 
    586e:	3e 40 f8 46 	mov	#18168,	r14	;#0x46f8
    5872:	0f 44       	mov	r4,	r15	;
    5874:	2f 83       	decd	r15		;
    5876:	2d 43       	mov	#2,	r13	;r3 As==10
    5878:	b0 12 e8 69 	call	#27112		;#0x69e8
    587c:	3f 40 50 45 	mov	#17744,	r15	;#0x4550
    5880:	b0 12 88 68 	call	#26760		;#0x6888
    5884:	00 3c       	jmp	$+2      	;abs 0x5886
    5886:	31 50 0a 00 	add	#10,	r1	;#0x000a
    588a:	34 41       	pop	r4		;
    588c:	30 41       	ret			
	...

00005890 <task_sample>:
    5890:	04 12       	push	r4		;
    5892:	04 41       	mov	r1,	r4	;
    5894:	21 82       	sub	#4,	r1	;r2 As==10
    5896:	1c 42 fc 46 	mov	&0x46fc,r12	;0x46fc
    589a:	84 4c fe ff 	mov	r12,	-2(r4)	; 0xfffe
    589e:	1c 53       	inc	r12		;
    58a0:	84 4c fc ff 	mov	r12,	-4(r4)	; 0xfffc
    58a4:	2c 93       	cmp	#2,	r12	;r3 As==10
    58a6:	04 20       	jnz	$+10     	;abs 0x58b0
    58a8:	00 3c       	jmp	$+2      	;abs 0x58aa
    58aa:	84 43 fc ff 	mov	#0,	-4(r4)	;r3 As==00, 0xfffc
    58ae:	00 3c       	jmp	$+2      	;abs 0x58b0
    58b0:	1c 44 fe ff 	mov	-2(r4),	r12	;
    58b4:	0c 93       	cmp	#0,	r12	;r3 As==00
    58b6:	11 20       	jnz	$+36     	;abs 0x58da
    58b8:	00 3c       	jmp	$+2      	;abs 0x58ba
    58ba:	1c 44 fc ff 	mov	-4(r4),	r12	;
    58be:	84 4c fe ff 	mov	r12,	-2(r4)	; 0xfffe
    58c2:	3e 40 fc 46 	mov	#18172,	r14	;#0x46fc
    58c6:	0f 44       	mov	r4,	r15	;
    58c8:	2f 83       	decd	r15		;
    58ca:	2d 43       	mov	#2,	r13	;r3 As==10
    58cc:	b0 12 e8 69 	call	#27112		;#0x69e8
    58d0:	3f 40 7a 45 	mov	#17786,	r15	;#0x457a
    58d4:	b0 12 88 68 	call	#26760		;#0x6888
    58d8:	10 3c       	jmp	$+34     	;abs 0x58fa
    58da:	1c 44 fc ff 	mov	-4(r4),	r12	;
    58de:	84 4c fe ff 	mov	r12,	-2(r4)	; 0xfffe
    58e2:	3e 40 fc 46 	mov	#18172,	r14	;#0x46fc
    58e6:	0f 44       	mov	r4,	r15	;
    58e8:	2f 83       	decd	r15		;
    58ea:	2d 43       	mov	#2,	r13	;r3 As==10
    58ec:	b0 12 e8 69 	call	#27112		;#0x69e8
    58f0:	3f 40 a4 45 	mov	#17828,	r15	;#0x45a4
    58f4:	b0 12 88 68 	call	#26760		;#0x6888
    58f8:	00 3c       	jmp	$+2      	;abs 0x58fa
    58fa:	21 52       	add	#4,	r1	;r2 As==10
    58fc:	34 41       	pop	r4		;
    58fe:	30 41       	ret			

00005900 <task_measure_temp>:
    5900:	04 12       	push	r4		;
    5902:	04 41       	mov	r1,	r4	;
    5904:	31 82       	sub	#8,	r1	;r2 As==11
    5906:	3e 40 fa 46 	mov	#18170,	r14	;#0x46fa
    590a:	1c 42 fa 46 	mov	&0x46fa,r12	;0x46fa
    590e:	84 4c fe ff 	mov	r12,	-2(r4)	; 0xfffe
    5912:	84 4c fc ff 	mov	r12,	-4(r4)	; 0xfffc
    5916:	0f 4c       	mov	r12,	r15	;
    5918:	84 4e f8 ff 	mov	r14,	-8(r4)	; 0xfff8
    591c:	b0 12 b4 61 	call	#25012		;#0x61b4
    5920:	84 4f fa ff 	mov	r15,	-6(r4)	; 0xfffa
    5924:	84 4f fc ff 	mov	r15,	-4(r4)	; 0xfffc
    5928:	84 4f fe ff 	mov	r15,	-2(r4)	; 0xfffe
    592c:	1c 44 fa ff 	mov	-6(r4),	r12	;
    5930:	82 4c 02 53 	mov	r12,	&0x5302	;
    5934:	0f 44       	mov	r4,	r15	;
    5936:	2f 83       	decd	r15		;
    5938:	2d 43       	mov	#2,	r13	;r3 As==10
    593a:	1e 44 f8 ff 	mov	-8(r4),	r14	;
    593e:	b0 12 e8 69 	call	#27112		;#0x69e8
    5942:	3f 40 a4 45 	mov	#17828,	r15	;#0x45a4
    5946:	b0 12 88 68 	call	#26760		;#0x6888
    594a:	31 52       	add	#8,	r1	;r2 As==11
    594c:	34 41       	pop	r4		;
    594e:	30 41       	ret			

00005950 <task_letterize>:
    5950:	04 12       	push	r4		;
    5952:	04 41       	mov	r1,	r4	;
    5954:	31 80 10 00 	sub	#16,	r1	;#0x0010
    5958:	1c 42 fc 46 	mov	&0x46fc,r12	;0x46fc
    595c:	84 4c fe ff 	mov	r12,	-2(r4)	; 0xfffe
    5960:	0c 93       	cmp	#0,	r12	;r3 As==00
    5962:	04 20       	jnz	$+10     	;abs 0x596c
    5964:	00 3c       	jmp	$+2      	;abs 0x5966
    5966:	a4 43 fe ff 	mov	#2,	-2(r4)	;r3 As==10, 0xfffe
    596a:	06 3c       	jmp	$+14     	;abs 0x5978
    596c:	1c 44 fe ff 	mov	-2(r4),	r12	;
    5970:	3c 53       	add	#-1,	r12	;r3 As==11
    5972:	84 4c fe ff 	mov	r12,	-2(r4)	; 0xfffe
    5976:	00 3c       	jmp	$+2      	;abs 0x5978
    5978:	1c 44 fe ff 	mov	-2(r4),	r12	;
    597c:	0c 5c       	rla	r12		;
    597e:	0c 5c       	rla	r12		;
    5980:	0c 5c       	rla	r12		;
    5982:	84 4c fc ff 	mov	r12,	-4(r4)	; 0xfffc
    5986:	1c 42 02 53 	mov	&0x5302,r12	;0x5302
    598a:	5d 44 fc ff 	mov.b	-4(r4),	r13	;
    598e:	3e 40 ff 00 	mov	#255,	r14	;#0x00ff
    5992:	4d 93       	cmp.b	#0,	r13	;r3 As==00
    5994:	4f 4d       	mov.b	r13,	r15	;
    5996:	84 4c f8 ff 	mov	r12,	-8(r4)	; 0xfff8
    599a:	c4 4d f7 ff 	mov.b	r13,	-9(r4)	; 0xfff7
    599e:	84 4e f4 ff 	mov	r14,	-12(r4)	; 0xfff4
    59a2:	c4 4f f3 ff 	mov.b	r15,	-13(r4)	; 0xfff3
    59a6:	0b 24       	jz	$+24     	;abs 0x59be
    59a8:	5c 44 f3 ff 	mov.b	-13(r4),r12	;0xfffffff3
    59ac:	1d 44 f4 ff 	mov	-12(r4),r13	;0xfffffff4
    59b0:	0d 5d       	rla	r13		;
    59b2:	5c 83       	dec.b	r12		;
    59b4:	84 4d f4 ff 	mov	r13,	-12(r4)	; 0xfff4
    59b8:	c4 4c f3 ff 	mov.b	r12,	-13(r4)	; 0xfff3
    59bc:	f5 23       	jnz	$-20     	;abs 0x59a8
    59be:	1c 44 f4 ff 	mov	-12(r4),r12	;0xfffffff4
    59c2:	1d 44 f8 ff 	mov	-8(r4),	r13	;
    59c6:	0d fc       	and	r12,	r13	;
    59c8:	5e 44 f7 ff 	mov.b	-9(r4),	r14	;
    59cc:	4e 93       	cmp.b	#0,	r14	;r3 As==00
    59ce:	c4 4e f2 ff 	mov.b	r14,	-14(r4)	; 0xfff2
    59d2:	84 4d f0 ff 	mov	r13,	-16(r4)	; 0xfff0
    59d6:	0c 24       	jz	$+26     	;abs 0x59f0
    59d8:	5c 44 f2 ff 	mov.b	-14(r4),r12	;0xfffffff2
    59dc:	1d 44 f0 ff 	mov	-16(r4),r13	;0xfffffff0
    59e0:	12 c3       	clrc			
    59e2:	0d 10       	rrc	r13		;
    59e4:	5c 83       	dec.b	r12		;
    59e6:	84 4d f0 ff 	mov	r13,	-16(r4)	; 0xfff0
    59ea:	c4 4c f2 ff 	mov.b	r12,	-14(r4)	; 0xfff2
    59ee:	f4 23       	jnz	$-22     	;abs 0x59d8
    59f0:	1c 44 f0 ff 	mov	-16(r4),r12	;0xfffffff0
    59f4:	84 4c fa ff 	mov	r12,	-6(r4)	; 0xfffa
    59f8:	82 4c f8 46 	mov	r12,	&0x46f8	;
    59fc:	3f 40 ce 45 	mov	#17870,	r15	;#0x45ce
    5a00:	b0 12 88 68 	call	#26760		;#0x6888
    5a04:	31 50 10 00 	add	#16,	r1	;#0x0010
    5a08:	34 41       	pop	r4		;
    5a0a:	30 41       	ret			

00005a0c <task_compress>:
    5a0c:	04 12       	push	r4		;
    5a0e:	04 41       	mov	r1,	r4	;
    5a10:	31 80 0c 00 	sub	#12,	r1	;#0x000c
    5a14:	3e 40 fe 46 	mov	#18174,	r14	;#0x46fe
    5a18:	1c 42 fe 46 	mov	&0x46fe,r12	;0x46fe
    5a1c:	84 4c fe ff 	mov	r12,	-2(r4)	; 0xfffe
    5a20:	1c 42 f4 46 	mov	&0x46f4,r12	;0x46f4
    5a24:	84 4c f6 ff 	mov	r12,	-10(r4)	; 0xfff6
    5a28:	3d 40 06 00 	mov	#6,	r13	;
    5a2c:	0f 4c       	mov	r12,	r15	;
    5a2e:	84 4e f4 ff 	mov	r14,	-12(r4)	; 0xfff4
    5a32:	0e 4d       	mov	r13,	r14	;
    5a34:	b0 12 e8 6b 	call	#27624		;#0x6be8
    5a38:	1c 4f 04 47 	mov	18180(r15),r12	;0x04704
    5a3c:	84 4c fc ff 	mov	r12,	-4(r4)	; 0xfffc
    5a40:	1c 4f 02 47 	mov	18178(r15),r12	;0x04702
    5a44:	84 4c fa ff 	mov	r12,	-6(r4)	; 0xfffa
    5a48:	1c 4f 00 47 	mov	18176(r15),r12	;0x04700
    5a4c:	84 4c f8 ff 	mov	r12,	-8(r4)	; 0xfff8
    5a50:	1c 44 fc ff 	mov	-4(r4),	r12	;
    5a54:	82 4c 04 53 	mov	r12,	&0x5304	;
    5a58:	1c 44 fc ff 	mov	-4(r4),	r12	;
    5a5c:	82 4c 0a 53 	mov	r12,	&0x530a	;
    5a60:	1c 44 fa ff 	mov	-6(r4),	r12	;
    5a64:	82 4c 08 53 	mov	r12,	&0x5308	;
    5a68:	1c 44 f8 ff 	mov	-8(r4),	r12	;
    5a6c:	82 4c 06 53 	mov	r12,	&0x5306	;
    5a70:	1c 44 f6 ff 	mov	-10(r4),r12	;0xfffffff6
    5a74:	82 4c 0c 53 	mov	r12,	&0x530c	;
    5a78:	1c 44 fc ff 	mov	-4(r4),	r12	;
    5a7c:	82 4c 0e 53 	mov	r12,	&0x530e	;
    5a80:	1c 44 fe ff 	mov	-2(r4),	r12	;
    5a84:	1c 53       	inc	r12		;
    5a86:	84 4c fe ff 	mov	r12,	-2(r4)	; 0xfffe
    5a8a:	0f 44       	mov	r4,	r15	;
    5a8c:	2f 83       	decd	r15		;
    5a8e:	2d 43       	mov	#2,	r13	;r3 As==10
    5a90:	1e 44 f4 ff 	mov	-12(r4),r14	;0xfffffff4
    5a94:	b0 12 e8 69 	call	#27112		;#0x69e8
    5a98:	3f 40 f8 45 	mov	#17912,	r15	;#0x45f8
    5a9c:	b0 12 88 68 	call	#26760		;#0x6888
    5aa0:	31 50 0c 00 	add	#12,	r1	;#0x000c
    5aa4:	34 41       	pop	r4		;
    5aa6:	30 41       	ret			

00005aa8 <task_find_sibling>:
    5aa8:	04 12       	push	r4		;
    5aaa:	04 41       	mov	r1,	r4	;
    5aac:	31 82       	sub	#8,	r1	;r2 As==11
    5aae:	1c 42 04 53 	mov	&0x5304,r12	;0x5304
    5ab2:	84 4c fe ff 	mov	r12,	-2(r4)	; 0xfffe
    5ab6:	0c 93       	cmp	#0,	r12	;r3 As==00
    5ab8:	41 24       	jz	$+132    	;abs 0x5b3c
    5aba:	00 3c       	jmp	$+2      	;abs 0x5abc
    5abc:	1c 44 fe ff 	mov	-2(r4),	r12	;
    5ac0:	84 4c fa ff 	mov	r12,	-6(r4)	; 0xfffa
    5ac4:	3e 40 06 00 	mov	#6,	r14	;
    5ac8:	0f 4c       	mov	r12,	r15	;
    5aca:	b0 12 e8 6b 	call	#27624		;#0x6be8
    5ace:	0c 4f       	mov	r15,	r12	;
    5ad0:	3c 50 00 47 	add	#18176,	r12	;#0x4700
    5ad4:	84 4c fc ff 	mov	r12,	-4(r4)	; 0xfffc
    5ad8:	1c 4f 00 47 	mov	18176(r15),r12	;0x04700
    5adc:	1e 42 f8 46 	mov	&0x46f8,r14	;0x46f8
    5ae0:	0c 9e       	cmp	r14,	r12	;
    5ae2:	11 20       	jnz	$+36     	;abs 0x5b06
    5ae4:	00 3c       	jmp	$+2      	;abs 0x5ae6
    5ae6:	1c 44 fe ff 	mov	-2(r4),	r12	;
    5aea:	82 4c f4 46 	mov	r12,	&0x46f4	;
    5aee:	3e 40 04 53 	mov	#21252,	r14	;#0x5304
    5af2:	0f 44       	mov	r4,	r15	;
    5af4:	2f 83       	decd	r15		;
    5af6:	2d 43       	mov	#2,	r13	;r3 As==10
    5af8:	b0 12 e8 69 	call	#27112		;#0x69e8
    5afc:	3f 40 a4 45 	mov	#17828,	r15	;#0x45a4
    5b00:	b0 12 88 68 	call	#26760		;#0x6888
    5b04:	1a 3c       	jmp	$+54     	;abs 0x5b3a
    5b06:	1c 44 fc ff 	mov	-4(r4),	r12	;
    5b0a:	1c 4c 02 00 	mov	2(r12),	r12	;
    5b0e:	0c 93       	cmp	#0,	r12	;r3 As==00
    5b10:	13 24       	jz	$+40     	;abs 0x5b38
    5b12:	00 3c       	jmp	$+2      	;abs 0x5b14
    5b14:	1c 44 fc ff 	mov	-4(r4),	r12	;
    5b18:	1c 4c 02 00 	mov	2(r12),	r12	;
    5b1c:	84 4c fe ff 	mov	r12,	-2(r4)	; 0xfffe
    5b20:	3e 40 04 53 	mov	#21252,	r14	;#0x5304
    5b24:	0f 44       	mov	r4,	r15	;
    5b26:	2f 83       	decd	r15		;
    5b28:	2d 43       	mov	#2,	r13	;r3 As==10
    5b2a:	b0 12 e8 69 	call	#27112		;#0x69e8
    5b2e:	3f 40 f8 45 	mov	#17912,	r15	;#0x45f8
    5b32:	b0 12 88 68 	call	#26760		;#0x6888
    5b36:	00 3c       	jmp	$+2      	;abs 0x5b38
    5b38:	00 3c       	jmp	$+2      	;abs 0x5b3a
    5b3a:	00 3c       	jmp	$+2      	;abs 0x5b3c
    5b3c:	1c 42 f8 46 	mov	&0x46f8,r12	;0x46f8
    5b40:	84 4c f8 ff 	mov	r12,	-8(r4)	; 0xfff8
    5b44:	82 4c f4 46 	mov	r12,	&0x46f4	;
    5b48:	1c 42 0e 53 	mov	&0x530e,r12	;0x530e
    5b4c:	0c 93       	cmp	#0,	r12	;r3 As==00
    5b4e:	0d 20       	jnz	$+28     	;abs 0x5b6a
    5b50:	00 3c       	jmp	$+2      	;abs 0x5b52
    5b52:	3e 40 04 53 	mov	#21252,	r14	;#0x5304
    5b56:	0f 44       	mov	r4,	r15	;
    5b58:	2f 83       	decd	r15		;
    5b5a:	2d 43       	mov	#2,	r13	;r3 As==10
    5b5c:	b0 12 e8 69 	call	#27112		;#0x69e8
    5b60:	3f 40 4c 46 	mov	#17996,	r15	;#0x464c
    5b64:	b0 12 88 68 	call	#26760		;#0x6888
    5b68:	0c 3c       	jmp	$+26     	;abs 0x5b82
    5b6a:	3e 40 04 53 	mov	#21252,	r14	;#0x5304
    5b6e:	0f 44       	mov	r4,	r15	;
    5b70:	2f 83       	decd	r15		;
    5b72:	2d 43       	mov	#2,	r13	;r3 As==10
    5b74:	b0 12 e8 69 	call	#27112		;#0x69e8
    5b78:	3f 40 22 46 	mov	#17954,	r15	;#0x4622
    5b7c:	b0 12 88 68 	call	#26760		;#0x6888
    5b80:	00 3c       	jmp	$+2      	;abs 0x5b82
    5b82:	31 52       	add	#8,	r1	;r2 As==11
    5b84:	34 41       	pop	r4		;
    5b86:	30 41       	ret			

00005b88 <task_add_node>:
    5b88:	04 12       	push	r4		;
    5b8a:	04 41       	mov	r1,	r4	;
    5b8c:	31 80 0e 00 	sub	#14,	r1	;#0x000e
    5b90:	1c 42 04 53 	mov	&0x5304,r12	;0x5304
    5b94:	84 4c fe ff 	mov	r12,	-2(r4)	; 0xfffe
    5b98:	84 4c fa ff 	mov	r12,	-6(r4)	; 0xfffa
    5b9c:	3e 40 06 00 	mov	#6,	r14	;
    5ba0:	0f 4c       	mov	r12,	r15	;
    5ba2:	b0 12 e8 6b 	call	#27624		;#0x6be8
    5ba6:	0c 4f       	mov	r15,	r12	;
    5ba8:	3c 50 00 47 	add	#18176,	r12	;#0x4700
    5bac:	84 4c fc ff 	mov	r12,	-4(r4)	; 0xfffc
    5bb0:	1c 4f 02 47 	mov	18178(r15),r12	;0x04702
    5bb4:	0c 93       	cmp	#0,	r12	;r3 As==00
    5bb6:	15 24       	jz	$+44     	;abs 0x5be2
    5bb8:	00 3c       	jmp	$+2      	;abs 0x5bba
    5bba:	1c 44 fc ff 	mov	-4(r4),	r12	;
    5bbe:	1c 4c 02 00 	mov	2(r12),	r12	;
    5bc2:	84 4c f8 ff 	mov	r12,	-8(r4)	; 0xfff8
    5bc6:	84 4c fe ff 	mov	r12,	-2(r4)	; 0xfffe
    5bca:	3e 40 04 53 	mov	#21252,	r14	;#0x5304
    5bce:	0f 44       	mov	r4,	r15	;
    5bd0:	2f 83       	decd	r15		;
    5bd2:	2d 43       	mov	#2,	r13	;r3 As==10
    5bd4:	b0 12 e8 69 	call	#27112		;#0x69e8
    5bd8:	3f 40 22 46 	mov	#17954,	r15	;#0x4622
    5bdc:	b0 12 88 68 	call	#26760		;#0x6888
    5be0:	25 3c       	jmp	$+76     	;abs 0x5c2c
    5be2:	1c 44 fc ff 	mov	-4(r4),	r12	;
    5be6:	1d 4c 04 00 	mov	4(r12),	r13	;
    5bea:	84 4d f6 ff 	mov	r13,	-10(r4)	; 0xfff6
    5bee:	1d 4c 02 00 	mov	2(r12),	r13	;
    5bf2:	84 4d f4 ff 	mov	r13,	-12(r4)	; 0xfff4
    5bf6:	2c 4c       	mov	@r12,	r12	;
    5bf8:	84 4c f2 ff 	mov	r12,	-14(r4)	; 0xfff2
    5bfc:	1c 44 f6 ff 	mov	-10(r4),r12	;0xfffffff6
    5c00:	82 4c 14 53 	mov	r12,	&0x5314	;
    5c04:	1c 44 f4 ff 	mov	-12(r4),r12	;0xfffffff4
    5c08:	82 4c 12 53 	mov	r12,	&0x5312	;
    5c0c:	1c 44 f2 ff 	mov	-14(r4),r12	;0xfffffff2
    5c10:	82 4c 10 53 	mov	r12,	&0x5310	;
    5c14:	3e 40 04 53 	mov	#21252,	r14	;#0x5304
    5c18:	0f 44       	mov	r4,	r15	;
    5c1a:	2f 83       	decd	r15		;
    5c1c:	2d 43       	mov	#2,	r13	;r3 As==10
    5c1e:	b0 12 e8 69 	call	#27112		;#0x69e8
    5c22:	3f 40 4c 46 	mov	#17996,	r15	;#0x464c
    5c26:	b0 12 88 68 	call	#26760		;#0x6888
    5c2a:	00 3c       	jmp	$+2      	;abs 0x5c2c
    5c2c:	31 50 0e 00 	add	#14,	r1	;#0x000e
    5c30:	34 41       	pop	r4		;
    5c32:	30 41       	ret			

00005c34 <task_add_insert>:
    5c34:	04 12       	push	r4		;
    5c36:	04 41       	mov	r1,	r4	;
    5c38:	31 80 1a 00 	sub	#26,	r1	;#0x001a
    5c3c:	1c 42 00 53 	mov	&0x5300,r12	;0x5300
    5c40:	84 4c fe ff 	mov	r12,	-2(r4)	; 0xfffe
    5c44:	3c 90 00 02 	cmp	#512,	r12	;#0x0200
    5c48:	03 20       	jnz	$+8      	;abs 0x5c50
    5c4a:	00 3c       	jmp	$+2      	;abs 0x5c4c
    5c4c:	00 3c       	jmp	$+2      	;abs 0x5c4e
    5c4e:	ff 3f       	jmp	$+0      	;abs 0x5c4e
    5c50:	1c 44 fe ff 	mov	-2(r4),	r12	;
    5c54:	84 4c fc ff 	mov	r12,	-4(r4)	; 0xfffc
    5c58:	1c 42 f8 46 	mov	&0x46f8,r12	;0x46f8
    5c5c:	84 4c f6 ff 	mov	r12,	-10(r4)	; 0xfff6
    5c60:	84 43 f8 ff 	mov	#0,	-8(r4)	;r3 As==00, 0xfff8
    5c64:	84 43 fa ff 	mov	#0,	-6(r4)	;r3 As==00, 0xfffa
    5c68:	1c 42 0a 53 	mov	&0x530a,r12	;0x530a
    5c6c:	0c 93       	cmp	#0,	r12	;r3 As==00
    5c6e:	27 20       	jnz	$+80     	;abs 0x5cbe
    5c70:	00 3c       	jmp	$+2      	;abs 0x5c72
    5c72:	1c 42 0a 53 	mov	&0x530a,r12	;0x530a
    5c76:	84 4c f4 ff 	mov	r12,	-12(r4)	; 0xfff4
    5c7a:	1c 42 08 53 	mov	&0x5308,r12	;0x5308
    5c7e:	84 4c f2 ff 	mov	r12,	-14(r4)	; 0xfff2
    5c82:	1c 42 06 53 	mov	&0x5306,r12	;0x5306
    5c86:	84 4c f0 ff 	mov	r12,	-16(r4)	; 0xfff0
    5c8a:	1c 44 fc ff 	mov	-4(r4),	r12	;
    5c8e:	84 4c f4 ff 	mov	r12,	-12(r4)	; 0xfff4
    5c92:	1c 42 0c 53 	mov	&0x530c,r12	;0x530c
    5c96:	84 4c ee ff 	mov	r12,	-18(r4)	; 0xffee
    5c9a:	3e 40 06 00 	mov	#6,	r14	;
    5c9e:	0f 4c       	mov	r12,	r15	;
    5ca0:	b0 12 e8 6b 	call	#27624		;#0x6be8
    5ca4:	1c 44 f4 ff 	mov	-12(r4),r12	;0xfffffff4
    5ca8:	8f 4c 04 47 	mov	r12,	18180(r15); 0x4704
    5cac:	1c 44 f2 ff 	mov	-14(r4),r12	;0xfffffff2
    5cb0:	8f 4c 02 47 	mov	r12,	18178(r15); 0x4702
    5cb4:	1c 44 f0 ff 	mov	-16(r4),r12	;0xfffffff0
    5cb8:	8f 4c 00 47 	mov	r12,	18176(r15); 0x4700
    5cbc:	27 3c       	jmp	$+80     	;abs 0x5d0c
    5cbe:	1c 42 04 53 	mov	&0x5304,r12	;0x5304
    5cc2:	84 4c ec ff 	mov	r12,	-20(r4)	; 0xffec
    5cc6:	1c 42 14 53 	mov	&0x5314,r12	;0x5314
    5cca:	84 4c ea ff 	mov	r12,	-22(r4)	; 0xffea
    5cce:	1c 42 12 53 	mov	&0x5312,r12	;0x5312
    5cd2:	84 4c e8 ff 	mov	r12,	-24(r4)	; 0xffe8
    5cd6:	1c 42 10 53 	mov	&0x5310,r12	;0x5310
    5cda:	84 4c e6 ff 	mov	r12,	-26(r4)	; 0xffe6
    5cde:	1c 44 fc ff 	mov	-4(r4),	r12	;
    5ce2:	84 4c e8 ff 	mov	r12,	-24(r4)	; 0xffe8
    5ce6:	1f 44 ec ff 	mov	-20(r4),r15	;0xffffffec
    5cea:	3e 40 06 00 	mov	#6,	r14	;
    5cee:	b0 12 e8 6b 	call	#27624		;#0x6be8
    5cf2:	1c 44 ea ff 	mov	-22(r4),r12	;0xffffffea
    5cf6:	8f 4c 04 47 	mov	r12,	18180(r15); 0x4704
    5cfa:	1c 44 e8 ff 	mov	-24(r4),r12	;0xffffffe8
    5cfe:	8f 4c 02 47 	mov	r12,	18178(r15); 0x4702
    5d02:	1c 44 e6 ff 	mov	-26(r4),r12	;0xffffffe6
    5d06:	8f 4c 00 47 	mov	r12,	18176(r15); 0x4700
    5d0a:	00 3c       	jmp	$+2      	;abs 0x5d0c
    5d0c:	1f 44 fc ff 	mov	-4(r4),	r15	;
    5d10:	3e 40 06 00 	mov	#6,	r14	;
    5d14:	b0 12 e8 6b 	call	#27624		;#0x6be8
    5d18:	1e 44 fa ff 	mov	-6(r4),	r14	;
    5d1c:	8f 4e 04 47 	mov	r14,	18180(r15); 0x4704
    5d20:	1e 44 f8 ff 	mov	-8(r4),	r14	;
    5d24:	8f 4e 02 47 	mov	r14,	18178(r15); 0x4702
    5d28:	1e 44 f6 ff 	mov	-10(r4),r14	;0xfffffff6
    5d2c:	8f 4e 00 47 	mov	r14,	18176(r15); 0x4700
    5d30:	1e 42 0c 53 	mov	&0x530c,r14	;0x530c
    5d34:	82 4e 16 53 	mov	r14,	&0x5316	;
    5d38:	1e 44 fe ff 	mov	-2(r4),	r14	;
    5d3c:	1e 53       	inc	r14		;
    5d3e:	84 4e fe ff 	mov	r14,	-2(r4)	; 0xfffe
    5d42:	3e 40 00 53 	mov	#21248,	r14	;#0x5300
    5d46:	0f 44       	mov	r4,	r15	;
    5d48:	2f 83       	decd	r15		;
    5d4a:	2d 43       	mov	#2,	r13	;r3 As==10
    5d4c:	b0 12 e8 69 	call	#27112		;#0x69e8
    5d50:	3f 40 76 46 	mov	#18038,	r15	;#0x4676
    5d54:	b0 12 88 68 	call	#26760		;#0x6888
    5d58:	31 50 1a 00 	add	#26,	r1	;#0x001a
    5d5c:	34 41       	pop	r4		;
    5d5e:	30 41       	ret			

00005d60 <task_append_compressed>:
    5d60:	04 12       	push	r4		;
    5d62:	04 41       	mov	r1,	r4	;
    5d64:	31 80 06 00 	sub	#6,	r1	;
    5d68:	1c 42 f6 46 	mov	&0x46f6,r12	;0x46f6
    5d6c:	84 4c fe ff 	mov	r12,	-2(r4)	; 0xfffe
    5d70:	84 4c fc ff 	mov	r12,	-4(r4)	; 0xfffc
    5d74:	1d 42 16 53 	mov	&0x5316,r13	;0x5316
    5d78:	3e 40 06 00 	mov	#6,	r14	;
    5d7c:	0f 4c       	mov	r12,	r15	;
    5d7e:	84 4d fa ff 	mov	r13,	-6(r4)	; 0xfffa
    5d82:	b0 12 e8 6b 	call	#27624		;#0x6be8
    5d86:	1c 44 fa ff 	mov	-6(r4),	r12	;
    5d8a:	8f 4c 18 53 	mov	r12,	21272(r15); 0x5318
    5d8e:	1c 44 fe ff 	mov	-2(r4),	r12	;
    5d92:	1c 53       	inc	r12		;
    5d94:	84 4c fe ff 	mov	r12,	-2(r4)	; 0xfffe
    5d98:	3c 90 40 00 	cmp	#64,	r12	;#0x0040
    5d9c:	0d 20       	jnz	$+28     	;abs 0x5db8
    5d9e:	00 3c       	jmp	$+2      	;abs 0x5da0
    5da0:	3e 40 f6 46 	mov	#18166,	r14	;#0x46f6
    5da4:	0f 44       	mov	r4,	r15	;
    5da6:	2f 83       	decd	r15		;
    5da8:	2d 43       	mov	#2,	r13	;r3 As==10
    5daa:	b0 12 e8 69 	call	#27112		;#0x69e8
    5dae:	3f 40 a0 46 	mov	#18080,	r15	;#0x46a0
    5db2:	b0 12 88 68 	call	#26760		;#0x6888
    5db6:	0c 3c       	jmp	$+26     	;abs 0x5dd0
    5db8:	3e 40 f6 46 	mov	#18166,	r14	;#0x46f6
    5dbc:	0f 44       	mov	r4,	r15	;
    5dbe:	2f 83       	decd	r15		;
    5dc0:	2d 43       	mov	#2,	r13	;r3 As==10
    5dc2:	b0 12 e8 69 	call	#27112		;#0x69e8
    5dc6:	3f 40 50 45 	mov	#17744,	r15	;#0x4550
    5dca:	b0 12 88 68 	call	#26760		;#0x6888
    5dce:	00 3c       	jmp	$+2      	;abs 0x5dd0
    5dd0:	31 50 06 00 	add	#6,	r1	;
    5dd4:	34 41       	pop	r4		;
    5dd6:	30 41       	ret			

00005dd8 <task_print>:
    5dd8:	04 12       	push	r4		;
    5dda:	04 41       	mov	r1,	r4	;
    5ddc:	31 80 14 00 	sub	#20,	r1	;#0x0014
    5de0:	0c 41       	mov	r1,	r12	;
    5de2:	bc 40 0e 44 	mov	#17422,	0(r12)	;#0x440e
    5de6:	00 00 
    5de8:	b0 12 b4 62 	call	#25268		;#0x62b4
    5dec:	84 43 fe ff 	mov	#0,	-2(r4)	;r3 As==00, 0xfffe
    5df0:	84 4f fa ff 	mov	r15,	-6(r4)	; 0xfffa
    5df4:	00 3c       	jmp	$+2      	;abs 0x5df6
    5df6:	1c 44 fe ff 	mov	-2(r4),	r12	;
    5dfa:	3c 90 40 00 	cmp	#64,	r12	;#0x0040
    5dfe:	31 2c       	jc	$+100    	;abs 0x5e62
    5e00:	00 3c       	jmp	$+2      	;abs 0x5e02
    5e02:	1f 44 fe ff 	mov	-2(r4),	r15	;
    5e06:	3e 40 06 00 	mov	#6,	r14	;
    5e0a:	b0 12 e8 6b 	call	#27624		;#0x6be8
    5e0e:	1e 4f 18 53 	mov	21272(r15),r14	;0x05318
    5e12:	84 4e fc ff 	mov	r14,	-4(r4)	; 0xfffc
    5e16:	0f 41       	mov	r1,	r15	;
    5e18:	8f 4e 02 00 	mov	r14,	2(r15)	;
    5e1c:	bf 40 22 44 	mov	#17442,	0(r15)	;#0x4422
    5e20:	00 00 
    5e22:	b0 12 b4 62 	call	#25268		;#0x62b4
    5e26:	1e 44 fe ff 	mov	-2(r4),	r14	;
    5e2a:	0e 93       	cmp	#0,	r14	;r3 As==00
    5e2c:	84 4f f8 ff 	mov	r15,	-8(r4)	; 0xfff8
    5e30:	11 24       	jz	$+36     	;abs 0x5e54
    5e32:	00 3c       	jmp	$+2      	;abs 0x5e34
    5e34:	1c 44 fe ff 	mov	-2(r4),	r12	;
    5e38:	1c 53       	inc	r12		;
    5e3a:	3c b0 07 00 	bit	#7,	r12	;
    5e3e:	0a 20       	jnz	$+22     	;abs 0x5e54
    5e40:	00 3c       	jmp	$+2      	;abs 0x5e42
    5e42:	0c 41       	mov	r1,	r12	;
    5e44:	bc 40 1f 44 	mov	#17439,	0(r12)	;#0x441f
    5e48:	00 00 
    5e4a:	b0 12 b4 62 	call	#25268		;#0x62b4
    5e4e:	84 4f f6 ff 	mov	r15,	-10(r4)	; 0xfff6
    5e52:	00 3c       	jmp	$+2      	;abs 0x5e54
    5e54:	00 3c       	jmp	$+2      	;abs 0x5e56
    5e56:	1c 44 fe ff 	mov	-2(r4),	r12	;
    5e5a:	1c 53       	inc	r12		;
    5e5c:	84 4c fe ff 	mov	r12,	-2(r4)	; 0xfffe
    5e60:	ca 3f       	jmp	$-106    	;abs 0x5df6
    5e62:	0c 41       	mov	r1,	r12	;
    5e64:	bc 40 1f 44 	mov	#17439,	0(r12)	;#0x441f
    5e68:	00 00 
    5e6a:	b0 12 b4 62 	call	#25268		;#0x62b4
    5e6e:	1c 42 fe 46 	mov	&0x46fe,r12	;0x46fe
    5e72:	0d 41       	mov	r1,	r13	;
    5e74:	8d 4c 02 00 	mov	r12,	2(r13)	;
    5e78:	bd 40 40 00 	mov	#64,	4(r13)	;#0x0040
    5e7c:	04 00 
    5e7e:	bd 40 28 44 	mov	#17448,	0(r13)	;#0x4428
    5e82:	00 00 
    5e84:	84 4f f4 ff 	mov	r15,	-12(r4)	; 0xfff4
    5e88:	b0 12 b4 62 	call	#25268		;#0x62b4
    5e8c:	3c 40 ca 46 	mov	#18122,	r12	;#0x46ca
    5e90:	84 4f f2 ff 	mov	r15,	-14(r4)	; 0xfff2
    5e94:	0f 4c       	mov	r12,	r15	;
    5e96:	b0 12 88 68 	call	#26760		;#0x6888
    5e9a:	31 50 14 00 	add	#20,	r1	;#0x0014
    5e9e:	34 41       	pop	r4		;
    5ea0:	30 41       	ret			
	...

00005ea4 <task_done>:
    5ea4:	04 12       	push	r4		;
    5ea6:	04 41       	mov	r1,	r4	;
    5ea8:	31 80 32 00 	sub	#50,	r1	;#0x0032
    5eac:	84 43 fe ff 	mov	#0,	-2(r4)	;r3 As==00, 0xfffe
    5eb0:	0c 41       	mov	r1,	r12	;
    5eb2:	bc 40 2a 00 	mov	#42,	4(r12)	;#0x002a
    5eb6:	04 00 
    5eb8:	9c 43 02 00 	mov	#1,	2(r12)	;r3 As==01
    5ebc:	bc 40 45 44 	mov	#17477,	0(r12)	;#0x4445
    5ec0:	00 00 
    5ec2:	b0 12 b4 62 	call	#25268		;#0x62b4
    5ec6:	1c 44 fe ff 	mov	-2(r4),	r12	;
    5eca:	3c 50 f8 01 	add	#504,	r12	;#0x01f8
    5ece:	84 4c fe ff 	mov	r12,	-2(r4)	; 0xfffe
    5ed2:	0c 41       	mov	r1,	r12	;
    5ed4:	ac 43 04 00 	mov	#2,	4(r12)	;r3 As==10
    5ed8:	9c 43 02 00 	mov	#1,	2(r12)	;r3 As==01
    5edc:	bc 40 5b 44 	mov	#17499,	0(r12)	;#0x445b
    5ee0:	00 00 
    5ee2:	84 4f fa ff 	mov	r15,	-6(r4)	; 0xfffa
    5ee6:	b0 12 b4 62 	call	#25268		;#0x62b4
    5eea:	1c 44 fe ff 	mov	-2(r4),	r12	;
    5eee:	2c 53       	incd	r12		;
    5ef0:	84 4c fe ff 	mov	r12,	-2(r4)	; 0xfffe
    5ef4:	0c 41       	mov	r1,	r12	;
    5ef6:	ac 43 04 00 	mov	#2,	4(r12)	;r3 As==10
    5efa:	ac 43 02 00 	mov	#2,	2(r12)	;r3 As==10
    5efe:	bc 40 5b 44 	mov	#17499,	0(r12)	;#0x445b
    5f02:	00 00 
    5f04:	84 4f f8 ff 	mov	r15,	-8(r4)	; 0xfff8
    5f08:	b0 12 b4 62 	call	#25268		;#0x62b4
    5f0c:	1c 44 fe ff 	mov	-2(r4),	r12	;
    5f10:	2c 53       	incd	r12		;
    5f12:	84 4c fe ff 	mov	r12,	-2(r4)	; 0xfffe
    5f16:	0c 41       	mov	r1,	r12	;
    5f18:	ac 43 04 00 	mov	#2,	4(r12)	;r3 As==10
    5f1c:	bc 40 03 00 	mov	#3,	2(r12)	;
    5f20:	02 00 
    5f22:	bc 40 5b 44 	mov	#17499,	0(r12)	;#0x445b
    5f26:	00 00 
    5f28:	84 4f f6 ff 	mov	r15,	-10(r4)	; 0xfff6
    5f2c:	b0 12 b4 62 	call	#25268		;#0x62b4
    5f30:	1c 44 fe ff 	mov	-2(r4),	r12	;
    5f34:	2c 53       	incd	r12		;
    5f36:	84 4c fe ff 	mov	r12,	-2(r4)	; 0xfffe
    5f3a:	0c 41       	mov	r1,	r12	;
    5f3c:	ac 43 04 00 	mov	#2,	4(r12)	;r3 As==10
    5f40:	ac 42 02 00 	mov	#4,	2(r12)	;r2 As==10
    5f44:	bc 40 5b 44 	mov	#17499,	0(r12)	;#0x445b
    5f48:	00 00 
    5f4a:	84 4f f4 ff 	mov	r15,	-12(r4)	; 0xfff4
    5f4e:	b0 12 b4 62 	call	#25268		;#0x62b4
    5f52:	1c 44 fe ff 	mov	-2(r4),	r12	;
    5f56:	2c 53       	incd	r12		;
    5f58:	84 4c fe ff 	mov	r12,	-2(r4)	; 0xfffe
    5f5c:	0c 41       	mov	r1,	r12	;
    5f5e:	ac 43 04 00 	mov	#2,	4(r12)	;r3 As==10
    5f62:	bc 40 05 00 	mov	#5,	2(r12)	;
    5f66:	02 00 
    5f68:	bc 40 5b 44 	mov	#17499,	0(r12)	;#0x445b
    5f6c:	00 00 
    5f6e:	84 4f f2 ff 	mov	r15,	-14(r4)	; 0xfff2
    5f72:	b0 12 b4 62 	call	#25268		;#0x62b4
    5f76:	1c 44 fe ff 	mov	-2(r4),	r12	;
    5f7a:	2c 53       	incd	r12		;
    5f7c:	84 4c fe ff 	mov	r12,	-2(r4)	; 0xfffe
    5f80:	0c 41       	mov	r1,	r12	;
    5f82:	bc 40 00 0c 	mov	#3072,	4(r12)	;#0x0c00
    5f86:	04 00 
    5f88:	bc 40 06 00 	mov	#6,	2(r12)	;
    5f8c:	02 00 
    5f8e:	bc 40 5b 44 	mov	#17499,	0(r12)	;#0x445b
    5f92:	00 00 
    5f94:	84 4f f0 ff 	mov	r15,	-16(r4)	; 0xfff0
    5f98:	b0 12 b4 62 	call	#25268		;#0x62b4
    5f9c:	1c 44 fe ff 	mov	-2(r4),	r12	;
    5fa0:	3c 50 00 0c 	add	#3072,	r12	;#0x0c00
    5fa4:	84 4c fe ff 	mov	r12,	-2(r4)	; 0xfffe
    5fa8:	0c 41       	mov	r1,	r12	;
    5faa:	ac 43 04 00 	mov	#2,	4(r12)	;r3 As==10
    5fae:	bc 40 07 00 	mov	#7,	2(r12)	;
    5fb2:	02 00 
    5fb4:	bc 40 5b 44 	mov	#17499,	0(r12)	;#0x445b
    5fb8:	00 00 
    5fba:	84 4f ee ff 	mov	r15,	-18(r4)	; 0xffee
    5fbe:	b0 12 b4 62 	call	#25268		;#0x62b4
    5fc2:	1c 44 fe ff 	mov	-2(r4),	r12	;
    5fc6:	2c 53       	incd	r12		;
    5fc8:	84 4c fe ff 	mov	r12,	-2(r4)	; 0xfffe
    5fcc:	0c 41       	mov	r1,	r12	;
    5fce:	ac 43 04 00 	mov	#2,	4(r12)	;r3 As==10
    5fd2:	bc 42 02 00 	mov	#8,	2(r12)	;r2 As==11
    5fd6:	bc 40 5b 44 	mov	#17499,	0(r12)	;#0x445b
    5fda:	00 00 
    5fdc:	84 4f ec ff 	mov	r15,	-20(r4)	; 0xffec
    5fe0:	b0 12 b4 62 	call	#25268		;#0x62b4
    5fe4:	1c 44 fe ff 	mov	-2(r4),	r12	;
    5fe8:	2c 53       	incd	r12		;
    5fea:	84 4c fe ff 	mov	r12,	-2(r4)	; 0xfffe
    5fee:	0c 41       	mov	r1,	r12	;
    5ff0:	ac 43 04 00 	mov	#2,	4(r12)	;r3 As==10
    5ff4:	bc 40 09 00 	mov	#9,	2(r12)	;
    5ff8:	02 00 
    5ffa:	bc 40 5b 44 	mov	#17499,	0(r12)	;#0x445b
    5ffe:	00 00 
    6000:	84 4f ea ff 	mov	r15,	-22(r4)	; 0xffea
    6004:	b0 12 b4 62 	call	#25268		;#0x62b4
    6008:	1c 44 fe ff 	mov	-2(r4),	r12	;
    600c:	2c 53       	incd	r12		;
    600e:	84 4c fe ff 	mov	r12,	-2(r4)	; 0xfffe
    6012:	0c 41       	mov	r1,	r12	;
    6014:	ac 43 04 00 	mov	#2,	4(r12)	;r3 As==10
    6018:	bc 40 0b 00 	mov	#11,	2(r12)	;#0x000b
    601c:	02 00 
    601e:	bc 40 5b 44 	mov	#17499,	0(r12)	;#0x445b
    6022:	00 00 
    6024:	84 4f e8 ff 	mov	r15,	-24(r4)	; 0xffe8
    6028:	b0 12 b4 62 	call	#25268		;#0x62b4
    602c:	1c 44 fe ff 	mov	-2(r4),	r12	;
    6030:	2c 53       	incd	r12		;
    6032:	84 4c fe ff 	mov	r12,	-2(r4)	; 0xfffe
    6036:	0c 41       	mov	r1,	r12	;
    6038:	ac 43 04 00 	mov	#2,	4(r12)	;r3 As==10
    603c:	bc 40 0c 00 	mov	#12,	2(r12)	;#0x000c
    6040:	02 00 
    6042:	bc 40 5b 44 	mov	#17499,	0(r12)	;#0x445b
    6046:	00 00 
    6048:	84 4f e6 ff 	mov	r15,	-26(r4)	; 0xffe6
    604c:	b0 12 b4 62 	call	#25268		;#0x62b4
    6050:	1c 44 fe ff 	mov	-2(r4),	r12	;
    6054:	2c 53       	incd	r12		;
    6056:	84 4c fe ff 	mov	r12,	-2(r4)	; 0xfffe
    605a:	0c 41       	mov	r1,	r12	;
    605c:	ac 43 04 00 	mov	#2,	4(r12)	;r3 As==10
    6060:	bc 40 0d 00 	mov	#13,	2(r12)	;#0x000d
    6064:	02 00 
    6066:	bc 40 5b 44 	mov	#17499,	0(r12)	;#0x445b
    606a:	00 00 
    606c:	84 4f e4 ff 	mov	r15,	-28(r4)	; 0xffe4
    6070:	b0 12 b4 62 	call	#25268		;#0x62b4
    6074:	1c 44 fe ff 	mov	-2(r4),	r12	;
    6078:	2c 53       	incd	r12		;
    607a:	84 4c fe ff 	mov	r12,	-2(r4)	; 0xfffe
    607e:	0c 41       	mov	r1,	r12	;
    6080:	bc 40 06 00 	mov	#6,	4(r12)	;
    6084:	04 00 
    6086:	bc 40 0e 00 	mov	#14,	2(r12)	;#0x000e
    608a:	02 00 
    608c:	bc 40 5b 44 	mov	#17499,	0(r12)	;#0x445b
    6090:	00 00 
    6092:	84 4f e2 ff 	mov	r15,	-30(r4)	; 0xffe2
    6096:	b0 12 b4 62 	call	#25268		;#0x62b4
    609a:	1c 44 fe ff 	mov	-2(r4),	r12	;
    609e:	3c 50 06 00 	add	#6,	r12	;
    60a2:	84 4c fe ff 	mov	r12,	-2(r4)	; 0xfffe
    60a6:	0c 41       	mov	r1,	r12	;
    60a8:	bc 40 80 01 	mov	#384,	4(r12)	;#0x0180
    60ac:	04 00 
    60ae:	bc 40 0f 00 	mov	#15,	2(r12)	;#0x000f
    60b2:	02 00 
    60b4:	bc 40 5b 44 	mov	#17499,	0(r12)	;#0x445b
    60b8:	00 00 
    60ba:	84 4f e0 ff 	mov	r15,	-32(r4)	; 0xffe0
    60be:	b0 12 b4 62 	call	#25268		;#0x62b4
    60c2:	1c 44 fe ff 	mov	-2(r4),	r12	;
    60c6:	3c 50 80 01 	add	#384,	r12	;#0x0180
    60ca:	84 4c fe ff 	mov	r12,	-2(r4)	; 0xfffe
    60ce:	0c 41       	mov	r1,	r12	;
    60d0:	bc 40 06 00 	mov	#6,	4(r12)	;
    60d4:	04 00 
    60d6:	bc 40 10 00 	mov	#16,	2(r12)	;#0x0010
    60da:	02 00 
    60dc:	bc 40 5b 44 	mov	#17499,	0(r12)	;#0x445b
    60e0:	00 00 
    60e2:	84 4f de ff 	mov	r15,	-34(r4)	; 0xffde
    60e6:	b0 12 b4 62 	call	#25268		;#0x62b4
    60ea:	1c 44 fe ff 	mov	-2(r4),	r12	;
    60ee:	3c 50 06 00 	add	#6,	r12	;
    60f2:	84 4c fe ff 	mov	r12,	-2(r4)	; 0xfffe
    60f6:	0c 41       	mov	r1,	r12	;
    60f8:	ac 43 04 00 	mov	#2,	4(r12)	;r3 As==10
    60fc:	bc 40 11 00 	mov	#17,	2(r12)	;#0x0011
    6100:	02 00 
    6102:	bc 40 5b 44 	mov	#17499,	0(r12)	;#0x445b
    6106:	00 00 
    6108:	84 4f dc ff 	mov	r15,	-36(r4)	; 0xffdc
    610c:	b0 12 b4 62 	call	#25268		;#0x62b4
    6110:	1c 44 fe ff 	mov	-2(r4),	r12	;
    6114:	2c 53       	incd	r12		;
    6116:	84 4c fe ff 	mov	r12,	-2(r4)	; 0xfffe
    611a:	0c 41       	mov	r1,	r12	;
    611c:	bc 40 42 00 	mov	#66,	2(r12)	;#0x0042
    6120:	02 00 
    6122:	bc 40 74 44 	mov	#17524,	0(r12)	;#0x4474
    6126:	00 00 
    6128:	84 4f da ff 	mov	r15,	-38(r4)	; 0xffda
    612c:	b0 12 b4 62 	call	#25268		;#0x62b4
    6130:	1c 44 fe ff 	mov	-2(r4),	r12	;
    6134:	3c 50 42 00 	add	#66,	r12	;#0x0042
    6138:	84 4c fe ff 	mov	r12,	-2(r4)	; 0xfffe
    613c:	0c 41       	mov	r1,	r12	;
    613e:	ac 43 02 00 	mov	#2,	2(r12)	;r3 As==10
    6142:	bc 40 8c 44 	mov	#17548,	0(r12)	;#0x448c
    6146:	00 00 
    6148:	84 4f d8 ff 	mov	r15,	-40(r4)	; 0xffd8
    614c:	b0 12 b4 62 	call	#25268		;#0x62b4
    6150:	1c 44 fe ff 	mov	-2(r4),	r12	;
    6154:	2c 53       	incd	r12		;
    6156:	84 4c fe ff 	mov	r12,	-2(r4)	; 0xfffe
    615a:	0d 41       	mov	r1,	r13	;
    615c:	8d 4c 02 00 	mov	r12,	2(r13)	;
    6160:	bd 40 a8 44 	mov	#17576,	0(r13)	;#0x44a8
    6164:	00 00 
    6166:	84 4f d6 ff 	mov	r15,	-42(r4)	; 0xffd6
    616a:	b0 12 b4 62 	call	#25268		;#0x62b4
    616e:	84 4f d4 ff 	mov	r15,	-44(r4)	; 0xffd4
    6172:	31 50 32 00 	add	#50,	r1	;#0x0032
    6176:	34 41       	pop	r4		;
    6178:	30 41       	ret			
	...

0000617c <_entry_task>:
    617c:	04 12       	push	r4		;
    617e:	04 41       	mov	r1,	r4	;
    6180:	3f 40 fc 44 	mov	#17660,	r15	;#0x44fc
    6184:	b0 12 88 68 	call	#26760		;#0x6888
    6188:	34 41       	pop	r4		;
    618a:	30 41       	ret			

0000618c <_init>:
    618c:	04 12       	push	r4		;
    618e:	04 41       	mov	r1,	r4	;
    6190:	b0 12 2c 57 	call	#22316		;#0x572c
    6194:	34 41       	pop	r4		;
    6196:	30 41       	ret			

00006198 <init_hw>:
    6198:	04 12       	push	r4		;
    619a:	04 41       	mov	r1,	r4	;
    619c:	b0 12 00 62 	call	#25088		;#0x6200
    61a0:	1c 42 30 01 	mov	&0x0130,r12	;0x0130
    61a4:	3c f0 fe ff 	and	#65534,	r12	;#0xfffe
    61a8:	82 4c 30 01 	mov	r12,	&0x0130	;
    61ac:	b0 12 94 62 	call	#25236		;#0x6294
    61b0:	34 41       	pop	r4		;
    61b2:	30 41       	ret			

000061b4 <acquire_sample>:
    61b4:	04 12       	push	r4		;
    61b6:	04 41       	mov	r1,	r4	;
    61b8:	31 80 06 00 	sub	#6,	r1	;
    61bc:	0c 4f       	mov	r15,	r12	;
    61be:	84 4f fe ff 	mov	r15,	-2(r4)	; 0xfffe
    61c2:	1f 53       	inc	r15		;
    61c4:	3f f0 03 00 	and	#3,	r15	;
    61c8:	84 4f fc ff 	mov	r15,	-4(r4)	; 0xfffc
    61cc:	84 4c fa ff 	mov	r12,	-6(r4)	; 0xfffa
    61d0:	31 50 06 00 	add	#6,	r1	;
    61d4:	34 41       	pop	r4		;
    61d6:	30 41       	ret			

000061d8 <msp_watchdog_enable>:
    61d8:	04 12       	push	r4		;
    61da:	04 41       	mov	r1,	r4	;
    61dc:	21 83       	decd	r1		;
    61de:	4c 4f       	mov.b	r15,	r12	;
    61e0:	c4 4c ff ff 	mov.b	r12,	-1(r4)	; 0xffff
    61e4:	5f 44 ff ff 	mov.b	-1(r4),	r15	;
    61e8:	3f d0 08 5a 	bis	#23048,	r15	;#0x5a08
    61ec:	82 4f 5c 01 	mov	r15,	&0x015c	;
    61f0:	5c 44 ff ff 	mov.b	-1(r4),	r12	;
    61f4:	c2 4c 20 1c 	mov.b	r12,	&0x1c20	;
    61f8:	21 53       	incd	r1		;
    61fa:	34 41       	pop	r4		;
    61fc:	30 41       	ret			
	...

00006200 <msp_watchdog_disable>:
    6200:	04 12       	push	r4		;
    6202:	04 41       	mov	r1,	r4	;
    6204:	b2 40 80 5a 	mov	#23168,	&0x015c	;#0x5a80
    6208:	5c 01 
    620a:	34 41       	pop	r4		;
    620c:	30 41       	ret			
	...

00006210 <msp_watchdog_kick>:
    6210:	04 12       	push	r4		;
    6212:	04 41       	mov	r1,	r4	;
    6214:	5c 42 20 1c 	mov.b	&0x1c20,r12	;0x1c20
    6218:	3c d0 08 5a 	bis	#23048,	r12	;#0x5a08
    621c:	82 4c 5c 01 	mov	r12,	&0x015c	;
    6220:	34 41       	pop	r4		;
    6222:	30 41       	ret			

00006224 <memcpy>:
    6224:	04 12       	push	r4		;
    6226:	04 41       	mov	r1,	r4	;
    6228:	0b 12       	push	r11		;
    622a:	0a 12       	push	r10		;
    622c:	31 80 0e 00 	sub	#14,	r1	;#0x000e
    6230:	0c 4d       	mov	r13,	r12	;
    6232:	0b 4e       	mov	r14,	r11	;
    6234:	0a 4f       	mov	r15,	r10	;
    6236:	84 4f fa ff 	mov	r15,	-6(r4)	; 0xfffa
    623a:	84 4e f8 ff 	mov	r14,	-8(r4)	; 0xfff8
    623e:	84 4d f6 ff 	mov	r13,	-10(r4)	; 0xfff6
    6242:	84 43 f4 ff 	mov	#0,	-12(r4)	;r3 As==00, 0xfff4
    6246:	84 4c f2 ff 	mov	r12,	-14(r4)	; 0xfff2
    624a:	84 4b f0 ff 	mov	r11,	-16(r4)	; 0xfff0
    624e:	84 4a ee ff 	mov	r10,	-18(r4)	; 0xffee
    6252:	00 3c       	jmp	$+2      	;abs 0x6254
    6254:	1c 44 f4 ff 	mov	-12(r4),r12	;0xfffffff4
    6258:	1d 44 f6 ff 	mov	-10(r4),r13	;0xfffffff6
    625c:	0c 9d       	cmp	r13,	r12	;
    625e:	12 2c       	jc	$+38     	;abs 0x6284
    6260:	00 3c       	jmp	$+2      	;abs 0x6262
    6262:	1c 44 f8 ff 	mov	-8(r4),	r12	;
    6266:	1d 44 f4 ff 	mov	-12(r4),r13	;0xfffffff4
    626a:	0c 5d       	add	r13,	r12	;
    626c:	6e 4c       	mov.b	@r12,	r14	;
    626e:	1c 44 fa ff 	mov	-6(r4),	r12	;
    6272:	0c 5d       	add	r13,	r12	;
    6274:	cc 4e 00 00 	mov.b	r14,	0(r12)	;
    6278:	1c 44 f4 ff 	mov	-12(r4),r12	;0xfffffff4
    627c:	1c 53       	inc	r12		;
    627e:	84 4c f4 ff 	mov	r12,	-12(r4)	; 0xfff4
    6282:	e8 3f       	jmp	$-46     	;abs 0x6254
    6284:	1f 44 fa ff 	mov	-6(r4),	r15	;
    6288:	31 50 0e 00 	add	#14,	r1	;#0x000e
    628c:	3a 41       	pop	r10		;
    628e:	3b 41       	pop	r11		;
    6290:	34 41       	pop	r4		;
    6292:	30 41       	ret			

00006294 <msp_clock_setup>:
    6294:	04 12       	push	r4		;
    6296:	04 41       	mov	r1,	r4	;
    6298:	f2 40 a5 ff 	mov.b	#65445,	&0x0161	;#0xffa5
    629c:	61 01 
    629e:	b2 40 0c 00 	mov	#12,	&0x0162	;#0x000c
    62a2:	62 01 
    62a4:	b2 40 33 00 	mov	#51,	&0x0164	;#0x0033
    62a8:	64 01 
    62aa:	82 43 66 01 	mov	#0,	&0x0166	;r3 As==00
    62ae:	34 41       	pop	r4		;
    62b0:	30 41       	ret			
	...

000062b4 <printf>:
    62b4:	04 12       	push	r4		;
    62b6:	04 41       	mov	r1,	r4	;
    62b8:	31 80 20 00 	sub	#32,	r1	;#0x0020
    62bc:	1c 44 04 00 	mov	4(r4),	r12	;
    62c0:	84 4c fc ff 	mov	r12,	-4(r4)	; 0xfffc
    62c4:	0c 44       	mov	r4,	r12	;
    62c6:	3c 50 06 00 	add	#6,	r12	;
    62ca:	84 4c ee ff 	mov	r12,	-18(r4)	; 0xffee
    62ce:	00 3c       	jmp	$+2      	;abs 0x62d0
    62d0:	1c 44 fc ff 	mov	-4(r4),	r12	;
    62d4:	0d 4c       	mov	r12,	r13	;
    62d6:	1d 53       	inc	r13		;
    62d8:	84 4d fc ff 	mov	r13,	-4(r4)	; 0xfffc
    62dc:	6e 4c       	mov.b	@r12,	r14	;
    62de:	c4 4e fb ff 	mov.b	r14,	-5(r4)	; 0xfffb
    62e2:	4e 93       	cmp.b	#0,	r14	;r3 As==00
    62e4:	02 20       	jnz	$+6      	;abs 0x62ea
    62e6:	52 3d       	jmp	$+678    	;abs 0x658c
    62e8:	00 3c       	jmp	$+2      	;abs 0x62ea
    62ea:	5c 44 fb ff 	mov.b	-5(r4),	r12	;
    62ee:	7c 90 25 00 	cmp.b	#37,	r12	;#0x0025
    62f2:	02 24       	jz	$+6      	;abs 0x62f8
    62f4:	40 3d       	jmp	$+642    	;abs 0x6576
    62f6:	00 3c       	jmp	$+2      	;abs 0x62f8
    62f8:	84 43 f2 ff 	mov	#0,	-14(r4)	;r3 As==00, 0xfff2
    62fc:	00 3c       	jmp	$+2      	;abs 0x62fe
    62fe:	1c 44 fc ff 	mov	-4(r4),	r12	;
    6302:	0d 4c       	mov	r12,	r13	;
    6304:	1d 53       	inc	r13		;
    6306:	84 4d fc ff 	mov	r13,	-4(r4)	; 0xfffc
    630a:	6c 4c       	mov.b	@r12,	r12	;
    630c:	8c 11       	sxt	r12		;
    630e:	4e 4c       	mov.b	r12,	r14	;
    6310:	c4 4e fb ff 	mov.b	r14,	-5(r4)	; 0xfffb
    6314:	0c 93       	cmp	#0,	r12	;r3 As==00
    6316:	84 4c ec ff 	mov	r12,	-20(r4)	; 0xffec
    631a:	02 20       	jnz	$+6      	;abs 0x6320
    631c:	27 3d       	jmp	$+592    	;abs 0x656c
    631e:	00 3c       	jmp	$+2      	;abs 0x6320
    6320:	1c 44 ec ff 	mov	-20(r4),r12	;0xffffffec
    6324:	3c 90 30 00 	cmp	#48,	r12	;#0x0030
    6328:	02 20       	jnz	$+6      	;abs 0x632e
    632a:	0f 3d       	jmp	$+544    	;abs 0x654a
    632c:	00 3c       	jmp	$+2      	;abs 0x632e
    632e:	1c 44 ec ff 	mov	-20(r4),r12	;0xffffffec
    6332:	3c 90 63 00 	cmp	#99,	r12	;#0x0063
    6336:	34 24       	jz	$+106    	;abs 0x63a0
    6338:	00 3c       	jmp	$+2      	;abs 0x633a
    633a:	1c 44 ec ff 	mov	-20(r4),r12	;0xffffffec
    633e:	3c 90 69 00 	cmp	#105,	r12	;#0x0069
    6342:	3d 24       	jz	$+124    	;abs 0x63be
    6344:	00 3c       	jmp	$+2      	;abs 0x6346
    6346:	1c 44 ec ff 	mov	-20(r4),r12	;0xffffffec
    634a:	3c 90 6c 00 	cmp	#108,	r12	;#0x006c
    634e:	66 24       	jz	$+206    	;abs 0x641c
    6350:	00 3c       	jmp	$+2      	;abs 0x6352
    6352:	1c 44 ec ff 	mov	-20(r4),r12	;0xffffffec
    6356:	3c 90 6e 00 	cmp	#110,	r12	;#0x006e
    635a:	60 24       	jz	$+194    	;abs 0x641c
    635c:	00 3c       	jmp	$+2      	;abs 0x635e
    635e:	1c 44 ec ff 	mov	-20(r4),r12	;0xffffffec
    6362:	3c 90 73 00 	cmp	#115,	r12	;#0x0073
    6366:	0d 24       	jz	$+28     	;abs 0x6382
    6368:	00 3c       	jmp	$+2      	;abs 0x636a
    636a:	1c 44 ec ff 	mov	-20(r4),r12	;0xffffffec
    636e:	3c 90 75 00 	cmp	#117,	r12	;#0x0075
    6372:	25 24       	jz	$+76     	;abs 0x63be
    6374:	00 3c       	jmp	$+2      	;abs 0x6376
    6376:	1c 44 ec ff 	mov	-20(r4),r12	;0xffffffec
    637a:	3c 90 78 00 	cmp	#120,	r12	;#0x0078
    637e:	8a 24       	jz	$+278    	;abs 0x6494
    6380:	f8 3c       	jmp	$+498    	;abs 0x6572
    6382:	1c 44 ee ff 	mov	-18(r4),r12	;0xffffffee
    6386:	1c 53       	inc	r12		;
    6388:	3c f0 fe ff 	and	#65534,	r12	;#0xfffe
    638c:	0d 4c       	mov	r12,	r13	;
    638e:	2d 53       	incd	r13		;
    6390:	84 4d ee ff 	mov	r13,	-18(r4)	; 0xffee
    6394:	2f 4c       	mov	@r12,	r15	;
    6396:	b0 12 58 67 	call	#26456		;#0x6758
    639a:	84 4f ea ff 	mov	r15,	-22(r4)	; 0xffea
    639e:	ea 3c       	jmp	$+470    	;abs 0x6574
    63a0:	1c 44 ee ff 	mov	-18(r4),r12	;0xffffffee
    63a4:	1c 53       	inc	r12		;
    63a6:	3c f0 fe ff 	and	#65534,	r12	;#0xfffe
    63aa:	0d 4c       	mov	r12,	r13	;
    63ac:	2d 53       	incd	r13		;
    63ae:	84 4d ee ff 	mov	r13,	-18(r4)	; 0xffee
    63b2:	2f 4c       	mov	@r12,	r15	;
    63b4:	b0 12 24 67 	call	#26404		;#0x6724
    63b8:	84 4f e8 ff 	mov	r15,	-24(r4)	; 0xffe8
    63bc:	db 3c       	jmp	$+440    	;abs 0x6574
    63be:	1c 44 ee ff 	mov	-18(r4),r12	;0xffffffee
    63c2:	1c 53       	inc	r12		;
    63c4:	3c f0 fe ff 	and	#65534,	r12	;#0xfffe
    63c8:	0d 4c       	mov	r12,	r13	;
    63ca:	2d 53       	incd	r13		;
    63cc:	84 4d ee ff 	mov	r13,	-18(r4)	; 0xffee
    63d0:	2c 4c       	mov	@r12,	r12	;
    63d2:	84 4c f8 ff 	mov	r12,	-8(r4)	; 0xfff8
    63d6:	5e 44 fb ff 	mov.b	-5(r4),	r14	;
    63da:	7e 90 69 00 	cmp.b	#105,	r14	;#0x0069
    63de:	13 20       	jnz	$+40     	;abs 0x6406
    63e0:	00 3c       	jmp	$+2      	;abs 0x63e2
    63e2:	1c 44 f8 ff 	mov	-8(r4),	r12	;
    63e6:	0c 93       	cmp	#0,	r12	;r3 As==00
    63e8:	0e 34       	jge	$+30     	;abs 0x6406
    63ea:	00 3c       	jmp	$+2      	;abs 0x63ec
    63ec:	1c 44 f8 ff 	mov	-8(r4),	r12	;
    63f0:	0d 43       	clr	r13		;
    63f2:	0d 8c       	sub	r12,	r13	;
    63f4:	84 4d f8 ff 	mov	r13,	-8(r4)	; 0xfff8
    63f8:	3f 40 2d 00 	mov	#45,	r15	;#0x002d
    63fc:	b0 12 24 67 	call	#26404		;#0x6724
    6400:	84 4f e6 ff 	mov	r15,	-26(r4)	; 0xffe6
    6404:	00 3c       	jmp	$+2      	;abs 0x6406
    6406:	1e 44 f8 ff 	mov	-8(r4),	r14	;
    640a:	3c 40 14 00 	mov	#20,	r12	;#0x0014
    640e:	3c 50 b4 44 	add	#17588,	r12	;#0x44b4
    6412:	0f 43       	clr	r15		;
    6414:	0d 4c       	mov	r12,	r13	;
    6416:	b0 12 a0 65 	call	#26016		;#0x65a0
    641a:	ac 3c       	jmp	$+346    	;abs 0x6574
    641c:	1c 44 ee ff 	mov	-18(r4),r12	;0xffffffee
    6420:	1c 53       	inc	r12		;
    6422:	3c f0 fe ff 	and	#65534,	r12	;#0xfffe
    6426:	0d 4c       	mov	r12,	r13	;
    6428:	2d 53       	incd	r13		;
    642a:	84 4d ee ff 	mov	r13,	-18(r4)	; 0xffee
    642e:	2c 4c       	mov	@r12,	r12	;
    6430:	1d 44 ee ff 	mov	-18(r4),r13	;0xffffffee
    6434:	0e 4d       	mov	r13,	r14	;
    6436:	2e 53       	incd	r14		;
    6438:	84 4e ee ff 	mov	r14,	-18(r4)	; 0xffee
    643c:	2d 4d       	mov	@r13,	r13	;
    643e:	84 4d f6 ff 	mov	r13,	-10(r4)	; 0xfff6
    6442:	84 4c f4 ff 	mov	r12,	-12(r4)	; 0xfff4
    6446:	5f 44 fb ff 	mov.b	-5(r4),	r15	;
    644a:	7f 90 6c 00 	cmp.b	#108,	r15	;#0x006c
    644e:	19 20       	jnz	$+52     	;abs 0x6482
    6450:	00 3c       	jmp	$+2      	;abs 0x6452
    6452:	1c 44 f6 ff 	mov	-10(r4),r12	;0xfffffff6
    6456:	0c 93       	cmp	#0,	r12	;r3 As==00
    6458:	14 34       	jge	$+42     	;abs 0x6482
    645a:	00 3c       	jmp	$+2      	;abs 0x645c
    645c:	1c 44 f4 ff 	mov	-12(r4),r12	;0xfffffff4
    6460:	1d 44 f6 ff 	mov	-10(r4),r13	;0xfffffff6
    6464:	0e 43       	clr	r14		;
    6466:	0f 4e       	mov	r14,	r15	;
    6468:	0f 8c       	sub	r12,	r15	;
    646a:	0e 7d       	subc	r13,	r14	;
    646c:	84 4e f6 ff 	mov	r14,	-10(r4)	; 0xfff6
    6470:	84 4f f4 ff 	mov	r15,	-12(r4)	; 0xfff4
    6474:	3f 40 2d 00 	mov	#45,	r15	;#0x002d
    6478:	b0 12 24 67 	call	#26404		;#0x6724
    647c:	84 4f e4 ff 	mov	r15,	-28(r4)	; 0xffe4
    6480:	00 3c       	jmp	$+2      	;abs 0x6482
    6482:	1f 44 f6 ff 	mov	-10(r4),r15	;0xfffffff6
    6486:	1e 44 f4 ff 	mov	-12(r4),r14	;0xfffffff4
    648a:	3d 40 b4 44 	mov	#17588,	r13	;#0x44b4
    648e:	b0 12 a0 65 	call	#26016		;#0x65a0
    6492:	70 3c       	jmp	$+226    	;abs 0x6574
    6494:	1c 44 ee ff 	mov	-18(r4),r12	;0xffffffee
    6498:	1c 53       	inc	r12		;
    649a:	3c f0 fe ff 	and	#65534,	r12	;#0xfffe
    649e:	0d 4c       	mov	r12,	r13	;
    64a0:	2d 53       	incd	r13		;
    64a2:	84 4d ee ff 	mov	r13,	-18(r4)	; 0xffee
    64a6:	2c 4c       	mov	@r12,	r12	;
    64a8:	84 4c f8 ff 	mov	r12,	-8(r4)	; 0xfff8
    64ac:	0c 11       	rra	r12		;
    64ae:	0c 11       	rra	r12		;
    64b0:	0c 11       	rra	r12		;
    64b2:	0c 11       	rra	r12		;
    64b4:	0c 11       	rra	r12		;
    64b6:	0c 11       	rra	r12		;
    64b8:	0c 11       	rra	r12		;
    64ba:	0c 11       	rra	r12		;
    64bc:	0c 11       	rra	r12		;
    64be:	0c 11       	rra	r12		;
    64c0:	0c 11       	rra	r12		;
    64c2:	0c 11       	rra	r12		;
    64c4:	84 4c f0 ff 	mov	r12,	-16(r4)	; 0xfff0
    64c8:	0c 93       	cmp	#0,	r12	;r3 As==00
    64ca:	06 20       	jnz	$+14     	;abs 0x64d8
    64cc:	00 3c       	jmp	$+2      	;abs 0x64ce
    64ce:	1c 44 f2 ff 	mov	-14(r4),r12	;0xfffffff2
    64d2:	2c 92       	cmp	#4,	r12	;r2 As==10
    64d4:	06 38       	jl	$+14     	;abs 0x64e2
    64d6:	00 3c       	jmp	$+2      	;abs 0x64d8
    64d8:	1f 44 f0 ff 	mov	-16(r4),r15	;0xfffffff0
    64dc:	b0 12 ec 66 	call	#26348		;#0x66ec
    64e0:	00 3c       	jmp	$+2      	;abs 0x64e2
    64e2:	1c 44 f8 ff 	mov	-8(r4),	r12	;
    64e6:	0c 11       	rra	r12		;
    64e8:	0c 11       	rra	r12		;
    64ea:	0c 11       	rra	r12		;
    64ec:	0c 11       	rra	r12		;
    64ee:	0c 11       	rra	r12		;
    64f0:	0c 11       	rra	r12		;
    64f2:	0c 11       	rra	r12		;
    64f4:	0c 11       	rra	r12		;
    64f6:	84 4c f0 ff 	mov	r12,	-16(r4)	; 0xfff0
    64fa:	0c 93       	cmp	#0,	r12	;r3 As==00
    64fc:	07 20       	jnz	$+16     	;abs 0x650c
    64fe:	00 3c       	jmp	$+2      	;abs 0x6500
    6500:	1c 44 f2 ff 	mov	-14(r4),r12	;0xfffffff2
    6504:	3c 90 03 00 	cmp	#3,	r12	;
    6508:	06 38       	jl	$+14     	;abs 0x6516
    650a:	00 3c       	jmp	$+2      	;abs 0x650c
    650c:	1f 44 f0 ff 	mov	-16(r4),r15	;0xfffffff0
    6510:	b0 12 ec 66 	call	#26348		;#0x66ec
    6514:	00 3c       	jmp	$+2      	;abs 0x6516
    6516:	1c 44 f8 ff 	mov	-8(r4),	r12	;
    651a:	0c 11       	rra	r12		;
    651c:	0c 11       	rra	r12		;
    651e:	0c 11       	rra	r12		;
    6520:	0c 11       	rra	r12		;
    6522:	84 4c f0 ff 	mov	r12,	-16(r4)	; 0xfff0
    6526:	0c 93       	cmp	#0,	r12	;r3 As==00
    6528:	06 20       	jnz	$+14     	;abs 0x6536
    652a:	00 3c       	jmp	$+2      	;abs 0x652c
    652c:	1c 44 f2 ff 	mov	-14(r4),r12	;0xfffffff2
    6530:	2c 93       	cmp	#2,	r12	;r3 As==10
    6532:	06 38       	jl	$+14     	;abs 0x6540
    6534:	00 3c       	jmp	$+2      	;abs 0x6536
    6536:	1f 44 f0 ff 	mov	-16(r4),r15	;0xfffffff0
    653a:	b0 12 ec 66 	call	#26348		;#0x66ec
    653e:	00 3c       	jmp	$+2      	;abs 0x6540
    6540:	1f 44 f8 ff 	mov	-8(r4),	r15	;
    6544:	b0 12 ec 66 	call	#26348		;#0x66ec
    6548:	15 3c       	jmp	$+44     	;abs 0x6574
    654a:	1c 44 fc ff 	mov	-4(r4),	r12	;
    654e:	0d 4c       	mov	r12,	r13	;
    6550:	1d 53       	inc	r13		;
    6552:	84 4d fc ff 	mov	r13,	-4(r4)	; 0xfffc
    6556:	6e 4c       	mov.b	@r12,	r14	;
    6558:	c4 4e fb ff 	mov.b	r14,	-5(r4)	; 0xfffb
    655c:	5c 44 fb ff 	mov.b	-5(r4),	r12	;
    6560:	8c 11       	sxt	r12		;
    6562:	3c 50 d0 ff 	add	#65488,	r12	;#0xffd0
    6566:	84 4c f2 ff 	mov	r12,	-14(r4)	; 0xfff2
    656a:	c9 3e       	jmp	$-620    	;abs 0x62fe
    656c:	84 43 fe ff 	mov	#0,	-2(r4)	;r3 As==00, 0xfffe
    6570:	10 3c       	jmp	$+34     	;abs 0x6592
    6572:	02 3c       	jmp	$+6      	;abs 0x6578
    6574:	0a 3c       	jmp	$+22     	;abs 0x658a
    6576:	00 3c       	jmp	$+2      	;abs 0x6578
    6578:	5c 44 fb ff 	mov.b	-5(r4),	r12	;
    657c:	8c 11       	sxt	r12		;
    657e:	0f 4c       	mov	r12,	r15	;
    6580:	b0 12 24 67 	call	#26404		;#0x6724
    6584:	84 4f e2 ff 	mov	r15,	-30(r4)	; 0xffe2
    6588:	00 3c       	jmp	$+2      	;abs 0x658a
    658a:	a2 3e       	jmp	$-698    	;abs 0x62d0
    658c:	84 43 fe ff 	mov	#0,	-2(r4)	;r3 As==00, 0xfffe
    6590:	00 3c       	jmp	$+2      	;abs 0x6592
    6592:	1f 44 fe ff 	mov	-2(r4),	r15	;
    6596:	31 50 20 00 	add	#32,	r1	;#0x0020
    659a:	34 41       	pop	r4		;
    659c:	30 41       	ret			
	...

000065a0 <xtoa>:
    65a0:	04 12       	push	r4		;
    65a2:	04 41       	mov	r1,	r4	;
    65a4:	0b 12       	push	r11		;
    65a6:	0a 12       	push	r10		;
    65a8:	09 12       	push	r9		;
    65aa:	31 80 22 00 	sub	#34,	r1	;#0x0022
    65ae:	0c 4f       	mov	r15,	r12	;
    65b0:	0b 4e       	mov	r14,	r11	;
    65b2:	0a 4d       	mov	r13,	r10	;
    65b4:	84 4f f6 ff 	mov	r15,	-10(r4)	; 0xfff6
    65b8:	84 4e f4 ff 	mov	r14,	-12(r4)	; 0xfff4
    65bc:	84 4d f2 ff 	mov	r13,	-14(r4)	; 0xfff2
    65c0:	1d 44 f6 ff 	mov	-10(r4),r13	;0xfffffff6
    65c4:	1e 44 f4 ff 	mov	-12(r4),r14	;0xfffffff4
    65c8:	0e dd       	bis	r13,	r14	;
    65ca:	0e 93       	cmp	#0,	r14	;r3 As==00
    65cc:	84 4c ea ff 	mov	r12,	-22(r4)	; 0xffea
    65d0:	84 4a e8 ff 	mov	r10,	-24(r4)	; 0xffe8
    65d4:	84 4b e6 ff 	mov	r11,	-26(r4)	; 0xffe6
    65d8:	7a 24       	jz	$+246    	;abs 0x66ce
    65da:	00 3c       	jmp	$+2      	;abs 0x65dc
    65dc:	00 3c       	jmp	$+2      	;abs 0x65de
    65de:	1c 44 f4 ff 	mov	-12(r4),r12	;0xfffffff4
    65e2:	1d 44 f6 ff 	mov	-10(r4),r13	;0xfffffff6
    65e6:	1e 44 f2 ff 	mov	-14(r4),r14	;0xfffffff2
    65ea:	2f 4e       	mov	@r14,	r15	;
    65ec:	1e 4e 02 00 	mov	2(r14),	r14	;
    65f0:	0d 9e       	cmp	r14,	r13	;
    65f2:	0b 42       	mov	r2,	r11	;
    65f4:	1b f3       	and	#1,	r11	;r3 As==01
    65f6:	0c 9f       	cmp	r15,	r12	;
    65f8:	0c 42       	mov	r2,	r12	;
    65fa:	1c f3       	and	#1,	r12	;r3 As==01
    65fc:	0d 9e       	cmp	r14,	r13	;
    65fe:	84 4b e4 ff 	mov	r11,	-28(r4)	; 0xffe4
    6602:	84 4c e2 ff 	mov	r12,	-30(r4)	; 0xffe2
    6606:	04 24       	jz	$+10     	;abs 0x6610
    6608:	1c 44 e4 ff 	mov	-28(r4),r12	;0xffffffe4
    660c:	84 4c e2 ff 	mov	r12,	-30(r4)	; 0xffe2
    6610:	1c 44 e2 ff 	mov	-30(r4),r12	;0xffffffe2
    6614:	1c b3       	bit	#1,	r12	;r3 As==01
    6616:	07 20       	jnz	$+16     	;abs 0x6626
    6618:	00 3c       	jmp	$+2      	;abs 0x661a
    661a:	1c 44 f2 ff 	mov	-14(r4),r12	;0xfffffff2
    661e:	2c 52       	add	#4,	r12	;r2 As==10
    6620:	84 4c f2 ff 	mov	r12,	-14(r4)	; 0xfff2
    6624:	dc 3f       	jmp	$-70     	;abs 0x65de
    6626:	00 3c       	jmp	$+2      	;abs 0x6628
    6628:	1c 44 f2 ff 	mov	-14(r4),r12	;0xfffffff2
    662c:	0d 4c       	mov	r12,	r13	;
    662e:	2d 52       	add	#4,	r13	;r2 As==10
    6630:	84 4d f2 ff 	mov	r13,	-14(r4)	; 0xfff2
    6634:	2d 4c       	mov	@r12,	r13	;
    6636:	1c 4c 02 00 	mov	2(r12),	r12	;
    663a:	84 4c ee ff 	mov	r12,	-18(r4)	; 0xffee
    663e:	84 4d ec ff 	mov	r13,	-20(r4)	; 0xffec
    6642:	f4 40 30 00 	mov.b	#48,	-15(r4)	;#0x0030, 0xfff1
    6646:	f1 ff 
    6648:	00 3c       	jmp	$+2      	;abs 0x664a
    664a:	1c 44 f4 ff 	mov	-12(r4),r12	;0xfffffff4
    664e:	1d 44 f6 ff 	mov	-10(r4),r13	;0xfffffff6
    6652:	1e 44 ec ff 	mov	-20(r4),r14	;0xffffffec
    6656:	1f 44 ee ff 	mov	-18(r4),r15	;0xffffffee
    665a:	0d 9f       	cmp	r15,	r13	;
    665c:	0b 42       	mov	r2,	r11	;
    665e:	1a 43       	mov	#1,	r10	;r3 As==01
    6660:	09 4a       	mov	r10,	r9	;
    6662:	09 cb       	bic	r11,	r9	;
    6664:	0c 9e       	cmp	r14,	r12	;
    6666:	0c 42       	mov	r2,	r12	;
    6668:	0a cc       	bic	r12,	r10	;
    666a:	0d 9f       	cmp	r15,	r13	;
    666c:	84 49 e0 ff 	mov	r9,	-32(r4)	; 0xffe0
    6670:	84 4a de ff 	mov	r10,	-34(r4)	; 0xffde
    6674:	04 24       	jz	$+10     	;abs 0x667e
    6676:	1c 44 e0 ff 	mov	-32(r4),r12	;0xffffffe0
    667a:	84 4c de ff 	mov	r12,	-34(r4)	; 0xffde
    667e:	1c 44 de ff 	mov	-34(r4),r12	;0xffffffde
    6682:	1c b3       	bit	#1,	r12	;r3 As==01
    6684:	15 20       	jnz	$+44     	;abs 0x66b0
    6686:	00 3c       	jmp	$+2      	;abs 0x6688
    6688:	5c 44 f1 ff 	mov.b	-15(r4),r12	;0xfffffff1
    668c:	5c 53       	inc.b	r12		;
    668e:	c4 4c f1 ff 	mov.b	r12,	-15(r4)	; 0xfff1
    6692:	1d 44 ec ff 	mov	-20(r4),r13	;0xffffffec
    6696:	1e 44 ee ff 	mov	-18(r4),r14	;0xffffffee
    669a:	1f 44 f4 ff 	mov	-12(r4),r15	;0xfffffff4
    669e:	1b 44 f6 ff 	mov	-10(r4),r11	;0xfffffff6
    66a2:	0f 8d       	sub	r13,	r15	;
    66a4:	0b 7e       	subc	r14,	r11	;
    66a6:	84 4b f6 ff 	mov	r11,	-10(r4)	; 0xfff6
    66aa:	84 4f f4 ff 	mov	r15,	-12(r4)	; 0xfff4
    66ae:	cd 3f       	jmp	$-100    	;abs 0x664a
    66b0:	5c 44 f1 ff 	mov.b	-15(r4),r12	;0xfffffff1
    66b4:	8c 11       	sxt	r12		;
    66b6:	0f 4c       	mov	r12,	r15	;
    66b8:	b0 12 24 67 	call	#26404		;#0x6724
    66bc:	84 4f dc ff 	mov	r15,	-36(r4)	; 0xffdc
    66c0:	00 3c       	jmp	$+2      	;abs 0x66c2
    66c2:	5c 44 ec ff 	mov.b	-20(r4),r12	;0xffffffec
    66c6:	5c b3       	bit.b	#1,	r12	;r3 As==01
    66c8:	af 27       	jz	$-160    	;abs 0x6628
    66ca:	00 3c       	jmp	$+2      	;abs 0x66cc
    66cc:	07 3c       	jmp	$+16     	;abs 0x66dc
    66ce:	3f 40 30 00 	mov	#48,	r15	;#0x0030
    66d2:	b0 12 24 67 	call	#26404		;#0x6724
    66d6:	84 4f da ff 	mov	r15,	-38(r4)	; 0xffda
    66da:	00 3c       	jmp	$+2      	;abs 0x66dc
    66dc:	31 50 22 00 	add	#34,	r1	;#0x0022
    66e0:	39 41       	pop	r9		;
    66e2:	3a 41       	pop	r10		;
    66e4:	3b 41       	pop	r11		;
    66e6:	34 41       	pop	r4		;
    66e8:	30 41       	ret			
	...

000066ec <puth>:
    66ec:	04 12       	push	r4		;
    66ee:	04 41       	mov	r1,	r4	;
    66f0:	31 80 06 00 	sub	#6,	r1	;
    66f4:	0c 4f       	mov	r15,	r12	;
    66f6:	84 4f fe ff 	mov	r15,	-2(r4)	; 0xfffe
    66fa:	3f f0 0f 00 	and	#15,	r15	;#0x000f
    66fe:	5f 4f dc 44 	mov.b	17628(r15),r15	;0x044dc
    6702:	8f 11       	sxt	r15		;
    6704:	84 4c fc ff 	mov	r12,	-4(r4)	; 0xfffc
    6708:	b0 12 24 67 	call	#26404		;#0x6724
    670c:	84 4f fa ff 	mov	r15,	-6(r4)	; 0xfffa
    6710:	31 50 06 00 	add	#6,	r1	;
    6714:	34 41       	pop	r4		;
    6716:	30 41       	ret			

00006718 <mspconsole_init>:
    6718:	04 12       	push	r4		;
    671a:	04 41       	mov	r1,	r4	;
    671c:	b0 12 f6 6b 	call	#27638		;#0x6bf6
    6720:	34 41       	pop	r4		;
    6722:	30 41       	ret			

00006724 <io_putchar>:
    6724:	04 12       	push	r4		;
    6726:	04 41       	mov	r1,	r4	;
    6728:	31 80 06 00 	sub	#6,	r1	;
    672c:	0c 4f       	mov	r15,	r12	;
    672e:	84 4f fe ff 	mov	r15,	-2(r4)	; 0xfffe
    6732:	5d 44 fe ff 	mov.b	-2(r4),	r13	;
    6736:	c4 4d fd ff 	mov.b	r13,	-3(r4)	; 0xfffd
    673a:	0f 44       	mov	r4,	r15	;
    673c:	3f 80 03 00 	sub	#3,	r15	;
    6740:	1e 43       	mov	#1,	r14	;r3 As==01
    6742:	84 4c fa ff 	mov	r12,	-6(r4)	; 0xfffa
    6746:	b0 12 82 6c 	call	#27778		;#0x6c82
    674a:	1f 44 fe ff 	mov	-2(r4),	r15	;
    674e:	31 50 06 00 	add	#6,	r1	;
    6752:	34 41       	pop	r4		;
    6754:	30 41       	ret			
	...

00006758 <io_puts_no_newline>:
    6758:	04 12       	push	r4		;
    675a:	04 41       	mov	r1,	r4	;
    675c:	31 82       	sub	#8,	r1	;r2 As==11
    675e:	0c 4f       	mov	r15,	r12	;
    6760:	84 4f fe ff 	mov	r15,	-2(r4)	; 0xfffe
    6764:	84 43 fc ff 	mov	#0,	-4(r4)	;r3 As==00, 0xfffc
    6768:	1f 44 fe ff 	mov	-2(r4),	r15	;
    676c:	84 4f fa ff 	mov	r15,	-6(r4)	; 0xfffa
    6770:	84 4c f8 ff 	mov	r12,	-8(r4)	; 0xfff8
    6774:	00 3c       	jmp	$+2      	;abs 0x6776
    6776:	1c 44 fa ff 	mov	-6(r4),	r12	;
    677a:	0d 4c       	mov	r12,	r13	;
    677c:	1d 53       	inc	r13		;
    677e:	84 4d fa ff 	mov	r13,	-6(r4)	; 0xfffa
    6782:	6e 4c       	mov.b	@r12,	r14	;
    6784:	4e 93       	cmp.b	#0,	r14	;r3 As==00
    6786:	07 24       	jz	$+16     	;abs 0x6796
    6788:	00 3c       	jmp	$+2      	;abs 0x678a
    678a:	1c 44 fc ff 	mov	-4(r4),	r12	;
    678e:	1c 53       	inc	r12		;
    6790:	84 4c fc ff 	mov	r12,	-4(r4)	; 0xfffc
    6794:	f0 3f       	jmp	$-30     	;abs 0x6776
    6796:	1f 44 fe ff 	mov	-2(r4),	r15	;
    679a:	1e 44 fc ff 	mov	-4(r4),	r14	;
    679e:	b0 12 82 6c 	call	#27778		;#0x6c82
    67a2:	1f 44 fc ff 	mov	-4(r4),	r15	;
    67a6:	31 52       	add	#8,	r1	;r2 As==11
    67a8:	34 41       	pop	r4		;
    67aa:	30 41       	ret			

000067ac <io_puts>:
    67ac:	04 12       	push	r4		;
    67ae:	04 41       	mov	r1,	r4	;
    67b0:	31 82       	sub	#8,	r1	;r2 As==11
    67b2:	0c 4f       	mov	r15,	r12	;
    67b4:	84 4f fe ff 	mov	r15,	-2(r4)	; 0xfffe
    67b8:	84 4c fa ff 	mov	r12,	-6(r4)	; 0xfffa
    67bc:	b0 12 58 67 	call	#26456		;#0x6758
    67c0:	84 4f fc ff 	mov	r15,	-4(r4)	; 0xfffc
    67c4:	3f 40 0a 00 	mov	#10,	r15	;#0x000a
    67c8:	b0 12 24 67 	call	#26404		;#0x6724
    67cc:	1c 44 fc ff 	mov	-4(r4),	r12	;
    67d0:	84 4f f8 ff 	mov	r15,	-8(r4)	; 0xfff8
    67d4:	0f 4c       	mov	r12,	r15	;
    67d6:	31 52       	add	#8,	r1	;r2 As==11
    67d8:	34 41       	pop	r4		;
    67da:	30 41       	ret			

000067dc <task_prologue>:
    67dc:	04 12       	push	r4		;
    67de:	04 41       	mov	r1,	r4	;
    67e0:	31 80 06 00 	sub	#6,	r1	;
    67e4:	1c 42 e0 54 	mov	&0x54e0,r12	;0x54e0
    67e8:	1c 4c 04 00 	mov	4(r12),	r12	;
    67ec:	2c 4c       	mov	@r12,	r12	;
    67ee:	84 4c fe ff 	mov	r12,	-2(r4)	; 0xfffe
    67f2:	1c 42 e0 54 	mov	&0x54e0,r12	;0x54e0
    67f6:	1c 4c 02 00 	mov	2(r12),	r12	;
    67fa:	1d 44 fe ff 	mov	-2(r4),	r13	;
    67fe:	1d 4d 08 00 	mov	8(r13),	r13	;
    6802:	0c 9d       	cmp	r13,	r12	;
    6804:	3a 24       	jz	$+118    	;abs 0x687a
    6806:	00 3c       	jmp	$+2      	;abs 0x6808
    6808:	00 3c       	jmp	$+2      	;abs 0x680a
    680a:	1c 42 c2 54 	mov	&0x54c2,r12	;0x54c2
    680e:	1d 42 c4 54 	mov	&0x54c4,r13	;0x54c4
    6812:	0c 9d       	cmp	r13,	r12	;
    6814:	25 2c       	jc	$+76     	;abs 0x6860
    6816:	00 3c       	jmp	$+2      	;abs 0x6818
    6818:	1c 42 c2 54 	mov	&0x54c2,r12	;0x54c2
    681c:	0c 5c       	rla	r12		;
    681e:	1c 4c e4 54 	mov	21732(r12),r12	;0x054e4
    6822:	84 4c fc ff 	mov	r12,	-4(r4)	; 0xfffc
    6826:	0c 93       	cmp	#0,	r12	;r3 As==00
    6828:	15 24       	jz	$+44     	;abs 0x6854
    682a:	00 3c       	jmp	$+2      	;abs 0x682c
    682c:	1c 42 c2 54 	mov	&0x54c2,r12	;0x54c2
    6830:	0c 5c       	rla	r12		;
    6832:	1c 4c 26 55 	mov	21798(r12),r12	;0x05526
    6836:	84 4c fa ff 	mov	r12,	-6(r4)	; 0xfffa
    683a:	1f 44 fc ff 	mov	-4(r4),	r15	;
    683e:	1c 42 c2 54 	mov	&0x54c2,r12	;0x54c2
    6842:	0c 5c       	rla	r12		;
    6844:	3c 50 68 55 	add	#21864,	r12	;#0x5568
    6848:	1d 44 fa ff 	mov	-6(r4),	r13	;
    684c:	0e 4c       	mov	r12,	r14	;
    684e:	b0 12 24 62 	call	#25124		;#0x6224
    6852:	00 3c       	jmp	$+2      	;abs 0x6854
    6854:	1c 42 c2 54 	mov	&0x54c2,r12	;0x54c2
    6858:	1c 53       	inc	r12		;
    685a:	82 4c c2 54 	mov	r12,	&0x54c2	;
    685e:	d5 3f       	jmp	$-84     	;abs 0x680a
    6860:	82 43 c4 54 	mov	#0,	&0x54c4	;r3 As==00
    6864:	82 43 c2 54 	mov	#0,	&0x54c2	;r3 As==00
    6868:	1c 42 e0 54 	mov	&0x54e0,r12	;0x54e0
    686c:	1c 4c 02 00 	mov	2(r12),	r12	;
    6870:	1d 44 fe ff 	mov	-2(r4),	r13	;
    6874:	8d 4c 08 00 	mov	r12,	8(r13)	;
    6878:	03 3c       	jmp	$+8      	;abs 0x6880
    687a:	82 43 c4 54 	mov	#0,	&0x54c4	;r3 As==00
    687e:	00 3c       	jmp	$+2      	;abs 0x6880
    6880:	31 50 06 00 	add	#6,	r1	;
    6884:	34 41       	pop	r4		;
    6886:	30 41       	ret			

00006888 <transition_to>:
    6888:	04 12       	push	r4		;
    688a:	04 41       	mov	r1,	r4	;
    688c:	31 80 0a 00 	sub	#10,	r1	;#0x000a
    6890:	0c 4f       	mov	r15,	r12	;
    6892:	84 4f fe ff 	mov	r15,	-2(r4)	; 0xfffe
    6896:	1f 42 e0 54 	mov	&0x54e0,r15	;0x54e0
    689a:	3d 40 da 54 	mov	#21722,	r13	;#0x54da
    689e:	3e 40 ce 54 	mov	#21710,	r14	;#0x54ce
    68a2:	0f 9d       	cmp	r13,	r15	;
    68a4:	84 4c fa ff 	mov	r12,	-6(r4)	; 0xfffa
    68a8:	84 4d f8 ff 	mov	r13,	-8(r4)	; 0xfff8
    68ac:	84 4e f6 ff 	mov	r14,	-10(r4)	; 0xfff6
    68b0:	04 24       	jz	$+10     	;abs 0x68ba
    68b2:	1c 44 f8 ff 	mov	-8(r4),	r12	;
    68b6:	84 4c f6 ff 	mov	r12,	-10(r4)	; 0xfff6
    68ba:	1c 44 f6 ff 	mov	-10(r4),r12	;0xfffffff6
    68be:	84 4c fc ff 	mov	r12,	-4(r4)	; 0xfffc
    68c2:	1d 44 fe ff 	mov	-2(r4),	r13	;
    68c6:	8c 4d 00 00 	mov	r13,	0(r12)	;
    68ca:	1c 42 e0 54 	mov	&0x54e0,r12	;0x54e0
    68ce:	1c 4c 02 00 	mov	2(r12),	r12	;
    68d2:	1c 53       	inc	r12		;
    68d4:	1d 44 fc ff 	mov	-4(r4),	r13	;
    68d8:	8d 4c 02 00 	mov	r12,	2(r13)	;
    68dc:	1c 42 e0 54 	mov	&0x54e0,r12	;0x54e0
    68e0:	1c 4c 02 00 	mov	2(r12),	r12	;
    68e4:	1d 44 fc ff 	mov	-4(r4),	r13	;
    68e8:	1d 4d 04 00 	mov	4(r13),	r13	;
    68ec:	8d 4c 02 00 	mov	r12,	2(r13)	;
    68f0:	1c 42 e0 54 	mov	&0x54e0,r12	;0x54e0
    68f4:	2c 4c       	mov	@r12,	r12	;
    68f6:	1d 44 fc ff 	mov	-4(r4),	r13	;
    68fa:	1d 4d 04 00 	mov	4(r13),	r13	;
    68fe:	8d 4c 00 00 	mov	r12,	0(r13)	;
    6902:	1c 44 fc ff 	mov	-4(r4),	r12	;
    6906:	82 4c e0 54 	mov	r12,	&0x54e0	;
    690a:	b0 12 dc 67 	call	#26588		;#0x67dc
    690e:	1c 44 fe ff 	mov	-2(r4),	r12	;
    6912:	2c 4c       	mov	@r12,	r12	;
    6914:	31 40 00 24 	mov	#9216,	r1	;#0x2400
    6918:	00 4c       	br	r12		;
    691a:	31 50 0a 00 	add	#10,	r1	;#0x000a
    691e:	34 41       	pop	r4		;
    6920:	30 41       	ret			
	...

00006924 <chan_in>:
    6924:	04 12       	push	r4		;
    6926:	04 41       	mov	r1,	r4	;
    6928:	0b 12       	push	r11		;
    692a:	0a 12       	push	r10		;
    692c:	31 80 18 00 	sub	#24,	r1	;#0x0018
    6930:	0c 4d       	mov	r13,	r12	;
    6932:	0b 4e       	mov	r14,	r11	;
    6934:	0a 4f       	mov	r15,	r10	;
    6936:	84 4f fa ff 	mov	r15,	-6(r4)	; 0xfffa
    693a:	84 4e f8 ff 	mov	r14,	-8(r4)	; 0xfff8
    693e:	84 4d f6 ff 	mov	r13,	-10(r4)	; 0xfff6
    6942:	84 43 f2 ff 	mov	#0,	-14(r4)	;r3 As==00, 0xfff2
    6946:	1d 44 f8 ff 	mov	-8(r4),	r13	;
    694a:	2d 53       	incd	r13		;
    694c:	84 4d ee ff 	mov	r13,	-18(r4)	; 0xffee
    6950:	1d 44 f8 ff 	mov	-8(r4),	r13	;
    6954:	84 4d ec ff 	mov	r13,	-20(r4)	; 0xffec
    6958:	1d 44 ee ff 	mov	-18(r4),r13	;0xffffffee
    695c:	1e 44 f6 ff 	mov	-10(r4),r14	;0xfffffff6
    6960:	0d 5e       	add	r14,	r13	;
    6962:	84 4d ea ff 	mov	r13,	-22(r4)	; 0xffea
    6966:	84 4d f0 ff 	mov	r13,	-16(r4)	; 0xfff0
    696a:	0f 4d       	mov	r13,	r15	;
    696c:	84 4c e8 ff 	mov	r12,	-24(r4)	; 0xffe8
    6970:	84 4b e6 ff 	mov	r11,	-26(r4)	; 0xffe6
    6974:	84 4a e4 ff 	mov	r10,	-28(r4)	; 0xffe4
    6978:	31 50 18 00 	add	#24,	r1	;#0x0018
    697c:	3a 41       	pop	r10		;
    697e:	3b 41       	pop	r11		;
    6980:	34 41       	pop	r4		;
    6982:	30 41       	ret			

00006984 <chan_out>:
    6984:	04 12       	push	r4		;
    6986:	04 41       	mov	r1,	r4	;
    6988:	31 80 14 00 	sub	#20,	r1	;#0x0014
    698c:	1c 44 0a 00 	mov	10(r4),	r12	;0x0000a
    6990:	1d 44 08 00 	mov	8(r4),	r13	;
    6994:	1e 44 06 00 	mov	6(r4),	r14	;
    6998:	1f 44 04 00 	mov	4(r4),	r15	;
    699c:	84 4f fe ff 	mov	r15,	-2(r4)	; 0xfffe
    69a0:	84 4e fc ff 	mov	r14,	-4(r4)	; 0xfffc
    69a4:	84 4d fa ff 	mov	r13,	-6(r4)	; 0xfffa
    69a8:	84 4c f8 ff 	mov	r12,	-8(r4)	; 0xfff8
    69ac:	1c 44 fa ff 	mov	-6(r4),	r12	;
    69b0:	2c 53       	incd	r12		;
    69b2:	84 4c f0 ff 	mov	r12,	-16(r4)	; 0xfff0
    69b6:	1c 44 fa ff 	mov	-6(r4),	r12	;
    69ba:	84 4c ee ff 	mov	r12,	-18(r4)	; 0xffee
    69be:	1c 44 f0 ff 	mov	-16(r4),r12	;0xfffffff0
    69c2:	1d 44 f8 ff 	mov	-8(r4),	r13	;
    69c6:	0c 5d       	add	r13,	r12	;
    69c8:	84 4c ec ff 	mov	r12,	-20(r4)	; 0xffec
    69cc:	84 4c f2 ff 	mov	r12,	-14(r4)	; 0xfff2
    69d0:	1e 44 fe ff 	mov	-2(r4),	r14	;
    69d4:	1d 44 fc ff 	mov	-4(r4),	r13	;
    69d8:	0f 4c       	mov	r12,	r15	;
    69da:	b0 12 24 62 	call	#25124		;#0x6224
    69de:	31 50 14 00 	add	#20,	r1	;#0x0014
    69e2:	34 41       	pop	r4		;
    69e4:	30 41       	ret			
	...

000069e8 <write_to_gbuf>:
    69e8:	04 12       	push	r4		;
    69ea:	04 41       	mov	r1,	r4	;
    69ec:	0b 12       	push	r11		;
    69ee:	0a 12       	push	r10		;
    69f0:	31 80 12 00 	sub	#18,	r1	;#0x0012
    69f4:	0c 4d       	mov	r13,	r12	;
    69f6:	0b 4e       	mov	r14,	r11	;
    69f8:	0a 4f       	mov	r15,	r10	;
    69fa:	84 4f fa ff 	mov	r15,	-6(r4)	; 0xfffa
    69fe:	84 4e f8 ff 	mov	r14,	-8(r4)	; 0xfff8
    6a02:	84 4d f6 ff 	mov	r13,	-10(r4)	; 0xfff6
    6a06:	1d 42 c4 54 	mov	&0x54c4,r13	;0x54c4
    6a0a:	0d 5d       	rla	r13		;
    6a0c:	3d 50 68 55 	add	#21864,	r13	;#0x5568
    6a10:	1e 44 fa ff 	mov	-6(r4),	r14	;
    6a14:	1f 44 f6 ff 	mov	-10(r4),r15	;0xfffffff6
    6a18:	84 4f f0 ff 	mov	r15,	-16(r4)	; 0xfff0
    6a1c:	0f 4d       	mov	r13,	r15	;
    6a1e:	1d 44 f0 ff 	mov	-16(r4),r13	;0xfffffff0
    6a22:	84 4c ee ff 	mov	r12,	-18(r4)	; 0xffee
    6a26:	84 4b ec ff 	mov	r11,	-20(r4)	; 0xffec
    6a2a:	84 4a ea ff 	mov	r10,	-22(r4)	; 0xffea
    6a2e:	b0 12 24 62 	call	#25124		;#0x6224
    6a32:	1c 44 f6 ff 	mov	-10(r4),r12	;0xfffffff6
    6a36:	1d 42 c4 54 	mov	&0x54c4,r13	;0x54c4
    6a3a:	0d 5d       	rla	r13		;
    6a3c:	8d 4c 26 55 	mov	r12,	21798(r13); 0x5526
    6a40:	1c 44 f8 ff 	mov	-8(r4),	r12	;
    6a44:	1d 42 c4 54 	mov	&0x54c4,r13	;0x54c4
    6a48:	0d 5d       	rla	r13		;
    6a4a:	8d 4c e4 54 	mov	r12,	21732(r13); 0x54e4
    6a4e:	1c 44 f6 ff 	mov	-10(r4),r12	;0xfffffff6
    6a52:	3c 90 03 00 	cmp	#3,	r12	;
    6a56:	2a 28       	jnc	$+86     	;abs 0x6aac
    6a58:	00 3c       	jmp	$+2      	;abs 0x6a5a
    6a5a:	1c 44 f6 ff 	mov	-10(r4),r12	;0xfffffff6
    6a5e:	3c 53       	add	#-1,	r12	;r3 As==11
    6a60:	12 c3       	clrc			
    6a62:	0c 10       	rrc	r12		;
    6a64:	1c 53       	inc	r12		;
    6a66:	84 4c f4 ff 	mov	r12,	-12(r4)	; 0xfff4
    6a6a:	94 43 f2 ff 	mov	#1,	-14(r4)	;r3 As==01, 0xfff2
    6a6e:	00 3c       	jmp	$+2      	;abs 0x6a70
    6a70:	1c 44 f2 ff 	mov	-14(r4),r12	;0xfffffff2
    6a74:	1d 44 f4 ff 	mov	-12(r4),r13	;0xfffffff4
    6a78:	0c 9d       	cmp	r13,	r12	;
    6a7a:	10 2c       	jc	$+34     	;abs 0x6a9c
    6a7c:	00 3c       	jmp	$+2      	;abs 0x6a7e
    6a7e:	1c 42 c4 54 	mov	&0x54c4,r12	;0x54c4
    6a82:	1d 44 f2 ff 	mov	-14(r4),r13	;0xfffffff2
    6a86:	0c 5d       	add	r13,	r12	;
    6a88:	0c 5c       	rla	r12		;
    6a8a:	8c 43 e4 54 	mov	#0,	21732(r12);r3 As==00, 0x54e4
    6a8e:	00 3c       	jmp	$+2      	;abs 0x6a90
    6a90:	1c 44 f2 ff 	mov	-14(r4),r12	;0xfffffff2
    6a94:	1c 53       	inc	r12		;
    6a96:	84 4c f2 ff 	mov	r12,	-14(r4)	; 0xfff2
    6a9a:	ea 3f       	jmp	$-42     	;abs 0x6a70
    6a9c:	1c 44 f4 ff 	mov	-12(r4),r12	;0xfffffff4
    6aa0:	1d 42 c4 54 	mov	&0x54c4,r13	;0x54c4
    6aa4:	0d 5c       	add	r12,	r13	;
    6aa6:	82 4d c4 54 	mov	r13,	&0x54c4	;
    6aaa:	06 3c       	jmp	$+14     	;abs 0x6ab8
    6aac:	1c 42 c4 54 	mov	&0x54c4,r12	;0x54c4
    6ab0:	1c 53       	inc	r12		;
    6ab2:	82 4c c4 54 	mov	r12,	&0x54c4	;
    6ab6:	00 3c       	jmp	$+2      	;abs 0x6ab8
    6ab8:	31 50 12 00 	add	#18,	r1	;#0x0012
    6abc:	3a 41       	pop	r10		;
    6abe:	3b 41       	pop	r11		;
    6ac0:	34 41       	pop	r4		;
    6ac2:	30 41       	ret			

00006ac4 <chan_out_gbuf>:
    6ac4:	04 12       	push	r4		;
    6ac6:	04 41       	mov	r1,	r4	;
    6ac8:	31 80 18 00 	sub	#24,	r1	;#0x0018
    6acc:	1c 44 0a 00 	mov	10(r4),	r12	;0x0000a
    6ad0:	1d 44 08 00 	mov	8(r4),	r13	;
    6ad4:	1e 44 06 00 	mov	6(r4),	r14	;
    6ad8:	1f 44 04 00 	mov	4(r4),	r15	;
    6adc:	84 4f fe ff 	mov	r15,	-2(r4)	; 0xfffe
    6ae0:	84 4e fc ff 	mov	r14,	-4(r4)	; 0xfffc
    6ae4:	84 4d fa ff 	mov	r13,	-6(r4)	; 0xfffa
    6ae8:	84 4c f8 ff 	mov	r12,	-8(r4)	; 0xfff8
    6aec:	1c 44 fa ff 	mov	-6(r4),	r12	;
    6af0:	2c 53       	incd	r12		;
    6af2:	84 4c f0 ff 	mov	r12,	-16(r4)	; 0xfff0
    6af6:	1c 44 fa ff 	mov	-6(r4),	r12	;
    6afa:	84 4c ee ff 	mov	r12,	-18(r4)	; 0xffee
    6afe:	1c 44 f0 ff 	mov	-16(r4),r12	;0xfffffff0
    6b02:	1d 44 f8 ff 	mov	-8(r4),	r13	;
    6b06:	0c 5d       	add	r13,	r12	;
    6b08:	84 4c ec ff 	mov	r12,	-20(r4)	; 0xffec
    6b0c:	1c 42 c4 54 	mov	&0x54c4,r12	;0x54c4
    6b10:	0c 5c       	rla	r12		;
    6b12:	3c 50 68 55 	add	#21864,	r12	;#0x5568
    6b16:	1e 44 fe ff 	mov	-2(r4),	r14	;
    6b1a:	1d 44 fc ff 	mov	-4(r4),	r13	;
    6b1e:	0f 4c       	mov	r12,	r15	;
    6b20:	b0 12 24 62 	call	#25124		;#0x6224
    6b24:	1c 44 fc ff 	mov	-4(r4),	r12	;
    6b28:	1d 42 c4 54 	mov	&0x54c4,r13	;0x54c4
    6b2c:	0d 5d       	rla	r13		;
    6b2e:	8d 4c 26 55 	mov	r12,	21798(r13); 0x5526
    6b32:	1c 44 ec ff 	mov	-20(r4),r12	;0xffffffec
    6b36:	84 4c f2 ff 	mov	r12,	-14(r4)	; 0xfff2
    6b3a:	1d 42 c4 54 	mov	&0x54c4,r13	;0x54c4
    6b3e:	0d 5d       	rla	r13		;
    6b40:	8d 4c e4 54 	mov	r12,	21732(r13); 0x54e4
    6b44:	1c 44 fc ff 	mov	-4(r4),	r12	;
    6b48:	3c 90 03 00 	cmp	#3,	r12	;
    6b4c:	2a 28       	jnc	$+86     	;abs 0x6ba2
    6b4e:	00 3c       	jmp	$+2      	;abs 0x6b50
    6b50:	1c 44 fc ff 	mov	-4(r4),	r12	;
    6b54:	3c 53       	add	#-1,	r12	;r3 As==11
    6b56:	12 c3       	clrc			
    6b58:	0c 10       	rrc	r12		;
    6b5a:	1c 53       	inc	r12		;
    6b5c:	84 4c ea ff 	mov	r12,	-22(r4)	; 0xffea
    6b60:	94 43 e8 ff 	mov	#1,	-24(r4)	;r3 As==01, 0xffe8
    6b64:	00 3c       	jmp	$+2      	;abs 0x6b66
    6b66:	1c 44 e8 ff 	mov	-24(r4),r12	;0xffffffe8
    6b6a:	1d 44 ea ff 	mov	-22(r4),r13	;0xffffffea
    6b6e:	0c 9d       	cmp	r13,	r12	;
    6b70:	10 2c       	jc	$+34     	;abs 0x6b92
    6b72:	00 3c       	jmp	$+2      	;abs 0x6b74
    6b74:	1c 42 c4 54 	mov	&0x54c4,r12	;0x54c4
    6b78:	1d 44 e8 ff 	mov	-24(r4),r13	;0xffffffe8
    6b7c:	0c 5d       	add	r13,	r12	;
    6b7e:	0c 5c       	rla	r12		;
    6b80:	8c 43 e4 54 	mov	#0,	21732(r12);r3 As==00, 0x54e4
    6b84:	00 3c       	jmp	$+2      	;abs 0x6b86
    6b86:	1c 44 e8 ff 	mov	-24(r4),r12	;0xffffffe8
    6b8a:	1c 53       	inc	r12		;
    6b8c:	84 4c e8 ff 	mov	r12,	-24(r4)	; 0xffe8
    6b90:	ea 3f       	jmp	$-42     	;abs 0x6b66
    6b92:	1c 44 ea ff 	mov	-22(r4),r12	;0xffffffea
    6b96:	1d 42 c4 54 	mov	&0x54c4,r13	;0x54c4
    6b9a:	0d 5c       	add	r12,	r13	;
    6b9c:	82 4d c4 54 	mov	r13,	&0x54c4	;
    6ba0:	06 3c       	jmp	$+14     	;abs 0x6bae
    6ba2:	1c 42 c4 54 	mov	&0x54c4,r12	;0x54c4
    6ba6:	1c 53       	inc	r12		;
    6ba8:	82 4c c4 54 	mov	r12,	&0x54c4	;
    6bac:	00 3c       	jmp	$+2      	;abs 0x6bae
    6bae:	31 50 18 00 	add	#24,	r1	;#0x0018
    6bb2:	34 41       	pop	r4		;
    6bb4:	30 41       	ret			
	...

00006bb8 <main>:
    6bb8:	04 12       	push	r4		;
    6bba:	04 41       	mov	r1,	r4	;
    6bbc:	21 83       	decd	r1		;
    6bbe:	84 43 fe ff 	mov	#0,	-2(r4)	;r3 As==00, 0xfffe
    6bc2:	b0 12 8c 61 	call	#24972		;#0x618c
    6bc6:	1c 42 e2 54 	mov	&0x54e2,r12	;0x54e2
    6bca:	1c 53       	inc	r12		;
    6bcc:	82 4c e2 54 	mov	r12,	&0x54e2	;
    6bd0:	b0 12 dc 67 	call	#26588		;#0x67dc
    6bd4:	1c 42 e0 54 	mov	&0x54e0,r12	;0x54e0
    6bd8:	2c 4c       	mov	@r12,	r12	;
    6bda:	2c 4c       	mov	@r12,	r12	;
    6bdc:	00 4c       	br	r12		;
    6bde:	0f 43       	clr	r15		;
    6be0:	21 53       	incd	r1		;
    6be2:	34 41       	pop	r4		;
    6be4:	30 41       	ret			
	...

00006be8 <__mulhi3hw_noint>:
    6be8:	82 4f c0 04 	mov	r15,	&0x04c0	;
    6bec:	82 4e c8 04 	mov	r14,	&0x04c8	;
    6bf0:	1f 42 ca 04 	mov	&0x04ca,r15	;0x04ca
    6bf4:	30 41       	ret			

00006bf6 <UART_init>:
 * @todo Currently assumes an 8MHz SMCLK. Make robust to clock frequency changes by using 32k ACLK.
 */
void UART_init(void) {

    // Configure USCI_A0 for UART mode
    UCA0CTLW0 = UCSWRST;                      // Put eUSCI in reset
    6bf6:	92 43 c0 05 	mov	#1,	&0x05c0	;r3 As==01
    UCA0CTLW0 |= UCSSEL__SMCLK;               // CLK = SMCLK
    6bfa:	b2 d0 80 00 	bis	#128,	&0x05c0	;#0x0080
    6bfe:	c0 05 
    UCA0BR1 = 0;
    UCA0MCTLW = UCOS16 | UCBRF_2 | (0xBB << 8);
#endif // UART_BAUDRATE
#elif UART_CLOCK == 8000000
#if UART_BAUDRATE == 115200
    UCA0BR0 = 4;
    6c00:	e2 42 c6 05 	mov.b	#4,	&0x05c6	;r2 As==10
    UCA0BR1 = 0;
    6c04:	c2 43 c7 05 	mov.b	#0,	&0x05c7	;r3 As==00
    UCA0MCTLW = UCOS16 | UCBRF_4 | (0x55 << 8);
    6c08:	b2 40 41 55 	mov	#21825,	&0x05c8	;#0x5541
    6c0c:	c8 05 
#endif // UART_BAUDRATE
#endif // UART_CLOCK

#if defined(__MSP430FR5969__) || defined(__MSP430FR5949__)
    PUART_TXSEL0 &= ~PIN_UART_TX; // TX pin to UART module
    6c0e:	d2 c3 0b 02 	bic.b	#1,	&0x020b	;r3 As==01
    PUART_TXSEL1 |= PIN_UART_TX;
    6c12:	d2 d3 0d 02 	bis.b	#1,	&0x020d	;r3 As==01

    PUART_RXSEL0 &= ~PIN_UART_RX; // RX pin to UART module
    6c16:	e2 c3 0b 02 	bic.b	#2,	&0x020b	;r3 As==10
    PUART_RXSEL1 |= PIN_UART_RX;
    6c1a:	e2 d3 0d 02 	bis.b	#2,	&0x020d	;r3 As==10
    PUART_RXSEL1 &= ~PIN_UART_RX;
#else
#error MCU not supported
#endif

    UCA0CTLW0 &= ~UCSWRST;                    // Initialize eUSCI
    6c1e:	92 c3 c0 05 	bic	#1,	&0x05c0	;r3 As==01

    // Initialize module state
    UART_SM.isTxBusy = FALSE;
    6c22:	3c 40 22 1c 	mov	#7202,	r12	;#0x1c22
    6c26:	cc 43 00 00 	mov.b	#0,	0(r12)	;r3 As==00
    UART_SM.txBytesRemaining = 0;
    6c2a:	8c 43 04 00 	mov	#0,	4(r12)	;r3 As==00
    UART_SM.isRxBusy = FALSE;
    6c2e:	cc 43 06 00 	mov.b	#0,	6(r12)	;r3 As==00
    UART_SM.rxBytesRemaining = 0;
    6c32:	8c 43 0a 00 	mov	#0,	10(r12)	;r3 As==00, 0x000a

}
    6c36:	30 41       	ret			

00006c38 <UART_teardown>:
void UART_teardown()
{
    // disable UART
    // Not sure how to do this best, but set all UCA0* registers to
    // their default values.  See User's Guide for default values.
    PUART_TXSEL0 &= ~PIN_UART_TX;
    6c38:	d2 c3 0b 02 	bic.b	#1,	&0x020b	;r3 As==01
    PUART_TXSEL1 &= ~PIN_UART_TX;
    6c3c:	d2 c3 0d 02 	bic.b	#1,	&0x020d	;r3 As==01
    PUART_RXSEL0 &= ~PIN_UART_RX;
    6c40:	e2 c3 0b 02 	bic.b	#2,	&0x020b	;r3 As==10
    PUART_RXSEL1 &= ~PIN_UART_RX;
    6c44:	e2 c3 0d 02 	bic.b	#2,	&0x020d	;r3 As==10
    UCA0CTLW0 = 0x0001;
    6c48:	92 43 c0 05 	mov	#1,	&0x05c0	;r3 As==01
    UCA0BR0 = 0x0000;
    6c4c:	c2 43 c6 05 	mov.b	#0,	&0x05c6	;r3 As==00
    UCA0MCTLW = 0x0000;
    6c50:	82 43 c8 05 	mov	#0,	&0x05c8	;r3 As==00
    UCA0IE = 0x0000;
    6c54:	82 43 da 05 	mov	#0,	&0x05da	;r3 As==00
    UCA0IFG = 0x0000;
    6c58:	82 43 dc 05 	mov	#0,	&0x05dc	;r3 As==00
}
    6c5c:	30 41       	ret			

00006c5e <UART_asyncSend>:
 * @param size the number of bytes to send
 */
void UART_asyncSend(uint8_t* txBuf, uint16_t size) {

    // Block until prior transmission has completed
    while (UART_SM.isTxBusy)
    6c5e:	3f 40 22 1c 	mov	#7202,	r15	;#0x1c22
    6c62:	6e 4f       	mov.b	@r15,	r14	;
    6c64:	0e 93       	cmp	#0,	r14	;r3 As==00
    6c66:	fd 23       	jnz	$-4      	;abs 0x6c62
        ;

    // Set up for start of transmission
    UART_SM.isTxBusy = TRUE;
    6c68:	3e 40 22 1c 	mov	#7202,	r14	;#0x1c22
    6c6c:	de 43 00 00 	mov.b	#1,	0(r14)	;r3 As==01
    UART_SM.txPtr = txBuf;
    6c70:	8e 4c 02 00 	mov	r12,	2(r14)	;
    UART_SM.txBytesRemaining = size;
    6c74:	8e 4d 04 00 	mov	r13,	4(r14)	;

    UCA0IFG &= ~(USCI_UART_UCTXIFG); // Clear the 'ready to accept byte' flag
    6c78:	a2 c2 dc 05 	bic	#4,	&0x05dc	;r2 As==10

    UCA0IE |= UCTXIE; // Enable USCI_A0 TX interrupt ('ready to accept byte')
    6c7c:	a2 d3 da 05 	bis	#2,	&0x05da	;r3 As==10
    //UCA0TXBUF = *(UART_SM.txPtr++); // Load in first byte

    // The bytes are transmitted in the TX ISR (which is called whenever the
    // UART is ready to accept a byte), and the isBusy flag is cleared when the
    // last byte has *finished* transmitting.
}
    6c80:	30 41       	ret			

00006c82 <UART_send>:
 * @param size the number of bytes to send
 *
 */
void UART_send(uint8_t* txBuf, uint16_t size) {

    UART_asyncSend(txBuf, size);
    6c82:	b0 12 5e 6c 	call	#27742		;#0x6c5e

    // Block until complete
    while (UART_SM.isTxBusy)
    6c86:	3d 40 22 1c 	mov	#7202,	r13	;#0x1c22
    6c8a:	6c 4d       	mov.b	@r13,	r12	;
    6c8c:	0c 93       	cmp	#0,	r12	;r3 As==00
    6c8e:	fd 23       	jnz	$-4      	;abs 0x6c8a
        ;
}
    6c90:	30 41       	ret			

00006c92 <UART_critSend>:
 *  and use UART status register polling instead of interrupts.
 */
void UART_critSend(uint8_t* txBuf, uint16_t size) {

    // Block until prior transmission has completed
    while (UART_SM.isTxBusy)
    6c92:	3f 40 22 1c 	mov	#7202,	r15	;#0x1c22
    6c96:	6e 4f       	mov.b	@r15,	r14	;
    6c98:	0e 93       	cmp	#0,	r14	;r3 As==00
    6c9a:	fd 23       	jnz	$-4      	;abs 0x6c96
        ;

    // Set up for start of transmission
    UART_SM.isTxBusy = TRUE;
    6c9c:	3e 40 22 1c 	mov	#7202,	r14	;#0x1c22
    6ca0:	de 43 00 00 	mov.b	#1,	0(r14)	;r3 As==01
    UART_SM.txPtr = txBuf;
    6ca4:	8e 4c 02 00 	mov	r12,	2(r14)	;
    UART_SM.txBytesRemaining = size;
    6ca8:	8e 4d 04 00 	mov	r13,	4(r14)	;

    UCA0IV &= ~(USCI_UART_UCTXIFG); // Clear byte completion flag
    6cac:	a2 c2 de 05 	bic	#4,	&0x05de	;r2 As==10

    while (UART_SM.txBytesRemaining--) {
    6cb0:	1c 4e 04 00 	mov	4(r14),	r12	;
    6cb4:	0d 4c       	mov	r12,	r13	;
    6cb6:	3d 53       	add	#-1,	r13	;r3 As==11
    6cb8:	8e 4d 04 00 	mov	r13,	4(r14)	;
    6cbc:	0c 93       	cmp	#0,	r12	;r3 As==00
    6cbe:	19 24       	jz	$+52     	;abs 0x6cf2
        UCA0TXBUF = *(UART_SM.txPtr++); // Load in next byte
    6cc0:	0c 4e       	mov	r14,	r12	;
    6cc2:	1d 4c 02 00 	mov	2(r12),	r13	;
    6cc6:	0e 4d       	mov	r13,	r14	;
    6cc8:	1e 53       	inc	r14		;
    6cca:	8c 4e 02 00 	mov	r14,	2(r12)	;
    6cce:	6d 4d       	mov.b	@r13,	r13	;
    6cd0:	3d f0 ff 00 	and	#255,	r13	;#0x00ff
    6cd4:	82 4d ce 05 	mov	r13,	&0x05ce	;
        while (!(UCA0IFG & UCTXIFG))
    6cd8:	a2 b3 dc 05 	bit	#2,	&0x05dc	;r3 As==10
    6cdc:	fd 27       	jz	$-4      	;abs 0x6cd8
            ; // Wait for byte transmission to complete
        UCA0IFG &= ~(UCTXIFG); // Clear byte completion flag
    6cde:	a2 c3 dc 05 	bic	#2,	&0x05dc	;r3 As==10
    UART_SM.txPtr = txBuf;
    UART_SM.txBytesRemaining = size;

    UCA0IV &= ~(USCI_UART_UCTXIFG); // Clear byte completion flag

    while (UART_SM.txBytesRemaining--) {
    6ce2:	1d 4c 04 00 	mov	4(r12),	r13	;
    6ce6:	0e 4d       	mov	r13,	r14	;
    6ce8:	3e 53       	add	#-1,	r14	;r3 As==11
    6cea:	8c 4e 04 00 	mov	r14,	4(r12)	;
    6cee:	0d 93       	cmp	#0,	r13	;r3 As==00
    6cf0:	e8 23       	jnz	$-46     	;abs 0x6cc2
        while (!(UCA0IFG & UCTXIFG))
            ; // Wait for byte transmission to complete
        UCA0IFG &= ~(UCTXIFG); // Clear byte completion flag
    }

    UART_SM.isTxBusy = FALSE;
    6cf2:	c2 43 22 1c 	mov.b	#0,	&0x1c22	;r3 As==00
}
    6cf6:	30 41       	ret			

00006cf8 <UART_isTxBusy>:
/**
 * Return true if UART TX module is in the middle of an operation, false if not.
 */
uint8_t UART_isTxBusy() {
    return UART_SM.isTxBusy;
}
    6cf8:	5c 42 22 1c 	mov.b	&0x1c22,r12	;0x1c22
    6cfc:	30 41       	ret			

00006cfe <UART_asyncReceive>:
 * @param size the number of bytes to receive
 */
void UART_asyncReceive(uint8_t* rxBuf, uint16_t size) {

    // Block until prior reception has completed
    while (UART_SM.isRxBusy)
    6cfe:	3f 40 22 1c 	mov	#7202,	r15	;#0x1c22
    6d02:	5e 4f 06 00 	mov.b	6(r15),	r14	;
    6d06:	0e 93       	cmp	#0,	r14	;r3 As==00
    6d08:	fc 23       	jnz	$-6      	;abs 0x6d02
        ;

    // Set up for start of reception
    UART_SM.isRxBusy = TRUE;
    6d0a:	3e 40 22 1c 	mov	#7202,	r14	;#0x1c22
    6d0e:	de 43 06 00 	mov.b	#1,	6(r14)	;r3 As==01
    UART_SM.rxPtr = rxBuf;
    6d12:	8e 4c 08 00 	mov	r12,	8(r14)	;
    UART_SM.rxBytesRemaining = size;
    6d16:	8e 4d 0a 00 	mov	r13,	10(r14)	; 0x000a

    UCA0IFG &= ~(UCRXIFG); // Clear byte completion flag
    6d1a:	92 c3 dc 05 	bic	#1,	&0x05dc	;r3 As==01

    UCA0IE |= UCRXIE; // Enable USCI_A0 RX interrupt
    6d1e:	92 d3 da 05 	bis	#1,	&0x05da	;r3 As==01

    // The rest of the reception will be completed by the RX ISR (which
    //  will wake after each byte has been received), and the isBusy flag
    //  will be cleared when done.
}
    6d22:	30 41       	ret			

00006d24 <UART_receive>:
 * @param size the number of bytes to receive
 *
 */
void UART_receive(uint8_t* rxBuf, uint16_t size) {

    UART_asyncReceive(rxBuf, size);
    6d24:	b0 12 fe 6c 	call	#27902		;#0x6cfe

    // Block until complete
    while (UART_SM.isRxBusy)
    6d28:	3d 40 22 1c 	mov	#7202,	r13	;#0x1c22
    6d2c:	5c 4d 06 00 	mov.b	6(r13),	r12	;
    6d30:	0c 93       	cmp	#0,	r12	;r3 As==00
    6d32:	fc 23       	jnz	$-6      	;abs 0x6d2c
        ;
}
    6d34:	30 41       	ret			

00006d36 <UART_critReceive>:
 *  and use UART status register polling instead of interrupts.
 */
void UART_critReceive(uint8_t* rxBuf, uint16_t size) {

    // Block until prior reception has completed
    while (UART_SM.isRxBusy)
    6d36:	3f 40 22 1c 	mov	#7202,	r15	;#0x1c22
    6d3a:	5e 4f 06 00 	mov.b	6(r15),	r14	;
    6d3e:	0e 93       	cmp	#0,	r14	;r3 As==00
    6d40:	fc 23       	jnz	$-6      	;abs 0x6d3a
        ;

    // Set up for start of reception
    UART_SM.isRxBusy = TRUE;
    6d42:	3e 40 22 1c 	mov	#7202,	r14	;#0x1c22
    6d46:	de 43 06 00 	mov.b	#1,	6(r14)	;r3 As==01
    UART_SM.rxPtr = rxBuf;
    6d4a:	8e 4c 08 00 	mov	r12,	8(r14)	;
    UART_SM.rxBytesRemaining = size;
    6d4e:	8e 4d 0a 00 	mov	r13,	10(r14)	; 0x000a

    UCA0IFG &= ~(UCRXIFG); // Clear byte completion flag
    6d52:	92 c3 dc 05 	bic	#1,	&0x05dc	;r3 As==01

    while (UART_SM.rxBytesRemaining--) {
    6d56:	1c 4e 0a 00 	mov	10(r14),r12	;0x0000a
    6d5a:	0d 4c       	mov	r12,	r13	;
    6d5c:	3d 53       	add	#-1,	r13	;r3 As==11
    6d5e:	8e 4d 0a 00 	mov	r13,	10(r14)	; 0x000a
    6d62:	0c 93       	cmp	#0,	r12	;r3 As==00
    6d64:	18 24       	jz	$+50     	;abs 0x6d96
        while (!(UCA0IFG & UCRXIFG))
            ; // Wait for byte reception to complete
        UCA0IFG &= ~(UCRXIFG); // Clear byte completion flag

        uint8_t rec = UCA0RXBUF; // Read next byte
        *(UART_SM.rxPtr++) = rec; // Store byte
    6d66:	0c 4e       	mov	r14,	r12	;
    UART_SM.rxBytesRemaining = size;

    UCA0IFG &= ~(UCRXIFG); // Clear byte completion flag

    while (UART_SM.rxBytesRemaining--) {
        while (!(UCA0IFG & UCRXIFG))
    6d68:	92 b3 dc 05 	bit	#1,	&0x05dc	;r3 As==01
    6d6c:	fd 27       	jz	$-4      	;abs 0x6d68
            ; // Wait for byte reception to complete
        UCA0IFG &= ~(UCRXIFG); // Clear byte completion flag
    6d6e:	92 c3 dc 05 	bic	#1,	&0x05dc	;r3 As==01

        uint8_t rec = UCA0RXBUF; // Read next byte
    6d72:	1e 42 cc 05 	mov	&0x05cc,r14	;0x05cc
        *(UART_SM.rxPtr++) = rec; // Store byte
    6d76:	1d 4c 08 00 	mov	8(r12),	r13	;
    6d7a:	0f 4d       	mov	r13,	r15	;
    6d7c:	1f 53       	inc	r15		;
    6d7e:	8c 4f 08 00 	mov	r15,	8(r12)	;
    while (UART_SM.rxBytesRemaining--) {
        while (!(UCA0IFG & UCRXIFG))
            ; // Wait for byte reception to complete
        UCA0IFG &= ~(UCRXIFG); // Clear byte completion flag

        uint8_t rec = UCA0RXBUF; // Read next byte
    6d82:	cd 4e 00 00 	mov.b	r14,	0(r13)	;
    UART_SM.rxPtr = rxBuf;
    UART_SM.rxBytesRemaining = size;

    UCA0IFG &= ~(UCRXIFG); // Clear byte completion flag

    while (UART_SM.rxBytesRemaining--) {
    6d86:	1d 4c 0a 00 	mov	10(r12),r13	;0x0000a
    6d8a:	0e 4d       	mov	r13,	r14	;
    6d8c:	3e 53       	add	#-1,	r14	;r3 As==11
    6d8e:	8c 4e 0a 00 	mov	r14,	10(r12)	; 0x000a
    6d92:	0d 93       	cmp	#0,	r13	;r3 As==00
    6d94:	e9 23       	jnz	$-44     	;abs 0x6d68

        uint8_t rec = UCA0RXBUF; // Read next byte
        *(UART_SM.rxPtr++) = rec; // Store byte
    }

    UART_SM.isRxBusy = FALSE;
    6d96:	c2 43 28 1c 	mov.b	#0,	&0x1c28	;r3 As==00
}
    6d9a:	30 41       	ret			

00006d9c <UART_isRxBusy>:
/**
 * Return true if UART RX module is in the middle of an operation, false if not.
 */
uint8_t UART_isRxBusy() {
    return UART_SM.isRxBusy;
}
    6d9c:	5c 42 28 1c 	mov.b	&0x1c28,r12	;0x1c28
    6da0:	30 41       	ret			

00006da2 <UART_isRxDone>:
 * Return true if UART RX module is not in the middle of an operation (e.g. done), false if not.
 *
 * Could be used in combination with UART_asyncReceive.
 */
uint8_t UART_isRxDone() {
    return !(UART_SM.isRxBusy);
    6da2:	5c 42 28 1c 	mov.b	&0x1c28,r12	;0x1c28
    6da6:	3c 53       	add	#-1,	r12	;r3 As==11
}
    6da8:	5c 03       	rrum	#1,	r12	;
    6daa:	4d 18 0c 11 	rpt #14 { rrax.w	r12		;
    6dae:	30 41       	ret			

00006db0 <USCI_A0_ISR>:
#elif defined(__GNUC__)
void __attribute__ ((interrupt(USCI_A0_VECTOR))) USCI_A0_ISR (void)
#else
#error Compiler not supported!
#endif
{
    6db0:	3f 15       	pushm	#4,	r15	;16-bit words
    uint8_t rec;

    switch (__even_in_range(UCA0IV, USCI_UART_UCTXCPTIFG)) {
    6db2:	1c 42 de 05 	mov	&0x05de,r12	;0x05de
    6db6:	2c 93       	cmp	#2,	r12	;r3 As==10
    6db8:	03 24       	jz	$+8      	;abs 0x6dc0
    6dba:	2c 92       	cmp	#4,	r12	;r2 As==10
    6dbc:	1e 24       	jz	$+62     	;abs 0x6dfa
    6dbe:	38 3c       	jmp	$+114    	;abs 0x6e30
    case USCI_NONE:
        break;
    case USCI_UART_UCRXIFG:
        if (UART_SM.rxBytesRemaining--) {
    6dc0:	3d 40 22 1c 	mov	#7202,	r13	;#0x1c22
    6dc4:	1c 4d 0a 00 	mov	10(r13),r12	;0x0000a
    6dc8:	0e 4c       	mov	r12,	r14	;
    6dca:	3e 53       	add	#-1,	r14	;r3 As==11
    6dcc:	8d 4e 0a 00 	mov	r14,	10(r13)	; 0x000a
    6dd0:	0c 93       	cmp	#0,	r12	;r3 As==00
    6dd2:	0a 24       	jz	$+22     	;abs 0x6de8
            rec = UCA0RXBUF; // Read next byte
    6dd4:	1e 42 cc 05 	mov	&0x05cc,r14	;0x05cc
            *(UART_SM.rxPtr++) = rec; // Store byte
    6dd8:	1c 4d 08 00 	mov	8(r13),	r12	;
    6ddc:	0f 4c       	mov	r12,	r15	;
    6dde:	1f 53       	inc	r15		;
    6de0:	8d 4f 08 00 	mov	r15,	8(r13)	;
    switch (__even_in_range(UCA0IV, USCI_UART_UCTXCPTIFG)) {
    case USCI_NONE:
        break;
    case USCI_UART_UCRXIFG:
        if (UART_SM.rxBytesRemaining--) {
            rec = UCA0RXBUF; // Read next byte
    6de4:	cc 4e 00 00 	mov.b	r14,	0(r12)	;
            *(UART_SM.rxPtr++) = rec; // Store byte
        }

        if (0 == UART_SM.rxBytesRemaining) {
    6de8:	1c 42 2c 1c 	mov	&0x1c2c,r12	;0x1c2c
    6dec:	0c 93       	cmp	#0,	r12	;r3 As==00
    6dee:	20 20       	jnz	$+66     	;abs 0x6e30
            UCA0IE &= ~(UCRXIE); // Disable USCI_A0 RX interrupt
    6df0:	92 c3 da 05 	bic	#1,	&0x05da	;r3 As==01
            UART_SM.isRxBusy = FALSE;
    6df4:	c2 43 28 1c 	mov.b	#0,	&0x1c28	;r3 As==00
    6df8:	1b 3c       	jmp	$+56     	;abs 0x6e30
        }

        break;
    case USCI_UART_UCTXIFG:
        UCA0TXBUF = *(UART_SM.txPtr++); // if interrupt was enabled, there must be bytes
    6dfa:	3c 40 22 1c 	mov	#7202,	r12	;#0x1c22
    6dfe:	1d 4c 02 00 	mov	2(r12),	r13	;
    6e02:	0e 4d       	mov	r13,	r14	;
    6e04:	1e 53       	inc	r14		;
    6e06:	8c 4e 02 00 	mov	r14,	2(r12)	;
    6e0a:	6d 4d       	mov.b	@r13,	r13	;
    6e0c:	3d f0 ff 00 	and	#255,	r13	;#0x00ff
    6e10:	82 4d ce 05 	mov	r13,	&0x05ce	;
        if (--UART_SM.txBytesRemaining == 0) {
    6e14:	1d 4c 04 00 	mov	4(r12),	r13	;
    6e18:	3d 53       	add	#-1,	r13	;r3 As==11
    6e1a:	8c 4d 04 00 	mov	r13,	4(r12)	;
    6e1e:	0d 93       	cmp	#0,	r13	;r3 As==00
    6e20:	07 20       	jnz	$+16     	;abs 0x6e30
            // TODO: actually, this wait should probably happen for blocking version only
            while (UCA0STATW & UCBUSY); // wait for last byte to finish transmitting
    6e22:	d2 b3 ca 05 	bit.b	#1,	&0x05ca	;r3 As==01
    6e26:	fd 23       	jnz	$-4      	;abs 0x6e22
            UCA0IE &= ~(UCTXIE); // Disable USCI_A0 TX interrupt
    6e28:	a2 c3 da 05 	bic	#2,	&0x05da	;r3 As==10
            UART_SM.isTxBusy = FALSE;
    6e2c:	c2 43 22 1c 	mov.b	#0,	&0x1c22	;r3 As==00
    case USCI_UART_UCSTTIFG:
        break;
    case USCI_UART_UCTXCPTIFG:
        break;
    }
}
    6e30:	3c 17       	popm	#4,	r15	;16-bit words
    6e32:	00 13       	reti			

00006e34 <memmove>:
    6e34:	0a 15       	pushm	#1,	r10	;16-bit words
    6e36:	0d 9c       	cmp	r12,	r13	;
    6e38:	10 2c       	jc	$+34     	;abs 0x6e5a
    6e3a:	0b 4d       	mov	r13,	r11	;
    6e3c:	0b 5e       	add	r14,	r11	;
    6e3e:	0c 9b       	cmp	r11,	r12	;
    6e40:	0c 2c       	jc	$+26     	;abs 0x6e5a
    6e42:	0d 4e       	mov	r14,	r13	;
    6e44:	3d 53       	add	#-1,	r13	;r3 As==11
    6e46:	3d 93       	cmp	#-1,	r13	;r3 As==11
    6e48:	13 24       	jz	$+40     	;abs 0x6e70
    6e4a:	0f 4d       	mov	r13,	r15	;
    6e4c:	0f 8e       	sub	r14,	r15	;
    6e4e:	0f 5b       	add	r11,	r15	;
    6e50:	0a 4c       	mov	r12,	r10	;
    6e52:	0a 5d       	add	r13,	r10	;
    6e54:	ea 4f 00 00 	mov.b	@r15,	0(r10)	;
    6e58:	f5 3f       	jmp	$-20     	;abs 0x6e44
    6e5a:	0f 43       	clr	r15		;
    6e5c:	0f 9e       	cmp	r14,	r15	;
    6e5e:	08 24       	jz	$+18     	;abs 0x6e70
    6e60:	0a 4d       	mov	r13,	r10	;
    6e62:	0a 5f       	add	r15,	r10	;
    6e64:	0b 4c       	mov	r12,	r11	;
    6e66:	0b 5f       	add	r15,	r11	;
    6e68:	eb 4a 00 00 	mov.b	@r10,	0(r11)	;
    6e6c:	1f 53       	inc	r15		;
    6e6e:	f6 3f       	jmp	$-18     	;abs 0x6e5c
    6e70:	0a 17       	popm	#1,	r10	;16-bit words
    6e72:	30 41       	ret			

00006e74 <memset>:
    6e74:	0f 4c       	mov	r12,	r15	;
    6e76:	0e 5c       	add	r12,	r14	;
    6e78:	0f 9e       	cmp	r14,	r15	;
    6e7a:	04 24       	jz	$+10     	;abs 0x6e84
    6e7c:	cf 4d 00 00 	mov.b	r13,	0(r15)	;
    6e80:	1f 53       	inc	r15		;
    6e82:	fa 3f       	jmp	$-10     	;abs 0x6e78
    6e84:	30 41       	ret			

00006e86 <__do_global_ctors_aux>:
    6e86:	0a 15       	pushm	#1,	r10	;16-bit words
    6e88:	1c 42 f4 44 	mov	&0x44f4,r12	;0x44f4
    6e8c:	3c 93       	cmp	#-1,	r12	;r3 As==11
    6e8e:	08 24       	jz	$+18     	;abs 0x6ea0
    6e90:	3a 40 f4 44 	mov	#17652,	r10	;#0x44f4
    6e94:	8c 12       	call	r12		;
    6e96:	3a 50 fe ff 	add	#65534,	r10	;#0xfffe
    6e9a:	2c 4a       	mov	@r10,	r12	;
    6e9c:	3c 93       	cmp	#-1,	r12	;r3 As==11
    6e9e:	fa 23       	jnz	$-10     	;abs 0x6e94
    6ea0:	0a 17       	popm	#1,	r10	;16-bit words
    6ea2:	30 41       	ret			

00006ea4 <call___do_global_ctors_aux>:
    6ea4:	30 41       	ret			

00006ea6 <__msp430_init>:
    6ea6:	b0 12 ac 56 	call	#22188		;#0x56ac
    6eaa:	b0 12 86 6e 	call	#28294		;#0x6e86
    6eae:	b0 12 ec 55 	call	#21996		;#0x55ec
    6eb2:	b0 12 e0 55 	call	#21984		;#0x55e0
    6eb6:	30 41       	ret			

00006eb8 <__msp430_fini>:
    6eb8:	b0 12 f8 55 	call	#22008		;#0x55f8
    6ebc:	b0 12 5e 56 	call	#22110		;#0x565e
    6ec0:	30 41       	ret			

templog.out:     file format elf32-msp430


Disassembly of section __interrupt_vector_49:

0000fff0 <__interrupt_vector_49>:
    fff0:	b0 6d       	interrupt service routine at 0x6db0

Disassembly of section .text:

000055b0 <__crt0_start>:
    55b0:	31 40 00 24 	mov	#9216,	r1	;#0x2400

000055b4 <__crt0_init_bss>:
    55b4:	3c 40 04 1c 	mov	#7172,	r12	;#0x1c04
    55b8:	0d 43       	clr	r13		;
    55ba:	3e 40 2a 00 	mov	#42,	r14	;#0x002a
    55be:	b0 12 74 6e 	call	#28276		;#0x6e74

000055c2 <__crt0_movedata>:
    55c2:	3c 40 00 1c 	mov	#7168,	r12	;#0x1c00
    55c6:	3d 40 aa 55 	mov	#21930,	r13	;#0x55aa
    55ca:	0d 9c       	cmp	r12,	r13	;
    55cc:	04 24       	jz	$+10     	;abs 0x55d6
    55ce:	3e 40 04 00 	mov	#4,	r14	;
    55d2:	b0 12 34 6e 	call	#28212		;#0x6e34

000055d6 <__crt0_call_init_then_main>:
    55d6:	b0 12 a6 6e 	call	#28326		;#0x6ea6
    55da:	0c 43       	clr	r12		;
    55dc:	b0 12 b8 6b 	call	#27576		;#0x6bb8

000055e0 <_msp430_run_init_array>:
    55e0:	34 40 f0 44 	mov	#17648,	r4	;#0x44f0
    55e4:	35 40 f0 44 	mov	#17648,	r5	;#0x44f0
    55e8:	26 43       	mov	#2,	r6	;r3 As==10
    55ea:	0d 3c       	jmp	$+28     	;abs 0x5606

000055ec <_msp430_run_preinit_array>:
    55ec:	34 40 f0 44 	mov	#17648,	r4	;#0x44f0
    55f0:	35 40 f0 44 	mov	#17648,	r5	;#0x44f0
    55f4:	26 43       	mov	#2,	r6	;r3 As==10
    55f6:	07 3c       	jmp	$+16     	;abs 0x5606

000055f8 <_msp430_run_fini_array>:
    55f8:	34 40 f0 44 	mov	#17648,	r4	;#0x44f0
    55fc:	35 40 f0 44 	mov	#17648,	r5	;#0x44f0
    5600:	36 40 fe ff 	mov	#65534,	r6	;#0xfffe
    5604:	00 3c       	jmp	$+2      	;abs 0x5606

00005606 <_msp430_run_array>:
    5606:	05 94       	cmp	r4,	r5	;
    5608:	05 24       	jz	$+12     	;abs 0x5614
    560a:	27 44       	mov	@r4,	r7	;
    560c:	04 56       	add	r6,	r4	;
    560e:	a7 12       	call	@r7		;
    5610:	10 40 f4 ff 	br	0xfff4		;PC rel. 0x5606

00005614 <_msp430_run_done>:
    5614:	30 41       	ret			

00005616 <deregister_tm_clones>:
    5616:	3c 40 c2 6e 	mov	#28354,	r12	;#0x6ec2
    561a:	3c 80 c1 6e 	sub	#28353,	r12	;#0x6ec1
    561e:	2d 43       	mov	#2,	r13	;r3 As==10
    5620:	0d 9c       	cmp	r12,	r13	;
    5622:	07 2c       	jc	$+16     	;abs 0x5632
    5624:	3d 40 00 00 	mov	#0,	r13	;
    5628:	0d 93       	cmp	#0,	r13	;r3 As==00
    562a:	03 24       	jz	$+8      	;abs 0x5632
    562c:	3c 40 c2 6e 	mov	#28354,	r12	;#0x6ec2
    5630:	8d 12       	call	r13		;
    5632:	30 41       	ret			

00005634 <register_tm_clones>:
    5634:	3d 40 c2 6e 	mov	#28354,	r13	;#0x6ec2
    5638:	3d 80 c2 6e 	sub	#28354,	r13	;#0x6ec2
    563c:	0d 11       	rra	r13		;
    563e:	0c 4d       	mov	r13,	r12	;
    5640:	5c 03       	rrum	#1,	r12	;
    5642:	4d 18 0c 11 	rpt #14 { rrax.w	r12		;
    5646:	0d 5c       	add	r12,	r13	;
    5648:	0d 11       	rra	r13		;
    564a:	0d 93       	cmp	#0,	r13	;r3 As==00
    564c:	07 24       	jz	$+16     	;abs 0x565c
    564e:	3e 40 00 00 	mov	#0,	r14	;
    5652:	0e 93       	cmp	#0,	r14	;r3 As==00
    5654:	03 24       	jz	$+8      	;abs 0x565c
    5656:	3c 40 c2 6e 	mov	#28354,	r12	;#0x6ec2
    565a:	8e 12       	call	r14		;
    565c:	30 41       	ret			

0000565e <__do_global_dtors_aux>:
    565e:	0a 15       	pushm	#1,	r10	;16-bit words
    5660:	c2 93 04 1c 	cmp.b	#0,	&0x1c04	;r3 As==00
    5664:	20 20       	jnz	$+66     	;abs 0x56a6
    5666:	1c 42 06 1c 	mov	&0x1c06,r12	;0x1c06
    566a:	3a 40 fa 44 	mov	#17658,	r10	;#0x44fa
    566e:	3a 80 f8 44 	sub	#17656,	r10	;#0x44f8
    5672:	0a 11       	rra	r10		;
    5674:	3a 53       	add	#-1,	r10	;r3 As==11
    5676:	0c 9a       	cmp	r10,	r12	;
    5678:	0b 2c       	jc	$+24     	;abs 0x5690
    567a:	1c 53       	inc	r12		;
    567c:	82 4c 06 1c 	mov	r12,	&0x1c06	;
    5680:	0c 5c       	rla	r12		;
    5682:	1c 4c f8 44 	mov	17656(r12),r12	;0x044f8
    5686:	8c 12       	call	r12		;
    5688:	1c 42 06 1c 	mov	&0x1c06,r12	;0x1c06
    568c:	0c 9a       	cmp	r10,	r12	;
    568e:	f5 2b       	jnc	$-20     	;abs 0x567a
    5690:	b0 12 16 56 	call	#22038		;#0x5616
    5694:	3d 40 00 00 	mov	#0,	r13	;
    5698:	0d 93       	cmp	#0,	r13	;r3 As==00
    569a:	03 24       	jz	$+8      	;abs 0x56a2
    569c:	3c 40 ec 44 	mov	#17644,	r12	;#0x44ec
    56a0:	8d 12       	call	r13		;
    56a2:	d2 43 04 1c 	mov.b	#1,	&0x1c04	;r3 As==01
    56a6:	0a 17       	popm	#1,	r10	;16-bit words
    56a8:	30 41       	ret			

000056aa <call___do_global_dtors_aux>:
    56aa:	30 41       	ret			

000056ac <frame_dummy>:
    56ac:	3e 40 00 00 	mov	#0,	r14	;
    56b0:	0e 93       	cmp	#0,	r14	;r3 As==00
    56b2:	05 24       	jz	$+12     	;abs 0x56be
    56b4:	3c 40 ec 44 	mov	#17644,	r12	;#0x44ec
    56b8:	3d 40 08 1c 	mov	#7176,	r13	;#0x1c08
    56bc:	8e 12       	call	r14		;
    56be:	3c 40 00 1c 	mov	#7168,	r12	;#0x1c00
    56c2:	8c 93 00 00 	cmp	#0,	0(r12)	;r3 As==00
    56c6:	03 20       	jnz	$+8      	;abs 0x56ce
    56c8:	b0 12 34 56 	call	#22068		;#0x5634
    56cc:	30 41       	ret			
    56ce:	3d 40 00 00 	mov	#0,	r13	;
    56d2:	0d 93       	cmp	#0,	r13	;r3 As==00
    56d4:	f9 27       	jz	$-12     	;abs 0x56c8
    56d6:	8d 12       	call	r13		;
    56d8:	f7 3f       	jmp	$-16     	;abs 0x56c8

000056da <call_frame_dummy>:
    56da:	30 41       	ret			

000056dc <TimerB1_ISR>:
    56dc:	04 12       	push	r4		;
    56de:	04 41       	mov	r1,	r4	;
    56e0:	0c 12       	push	r12		;
    56e2:	1c 42 c0 03 	mov	&0x03c0,r12	;0x03c0
    56e6:	3c f0 fd ff 	and	#65533,	r12	;#0xfffd
    56ea:	82 4c c0 03 	mov	r12,	&0x03c0	;
    56ee:	1c 42 c0 03 	mov	&0x03c0,r12	;0x03c0
    56f2:	0c 93       	cmp	#0,	r12	;r3 As==00
    56f4:	17 24       	jz	$+48     	;abs 0x5724
    56f6:	00 3c       	jmp	$+2      	;abs 0x56f8
    56f8:	1c 42 16 1c 	mov	&0x1c16,r12	;0x1c16
    56fc:	1c 53       	inc	r12		;
    56fe:	82 4c 16 1c 	mov	r12,	&0x1c16	;
    5702:	1c 42 c0 03 	mov	&0x03c0,r12	;0x03c0
    5706:	2c d2       	bis	#4,	r12	;r2 As==10
    5708:	82 4c c0 03 	mov	r12,	&0x03c0	;
    570c:	1c 42 c0 03 	mov	&0x03c0,r12	;0x03c0
    5710:	2c d3       	bis	#2,	r12	;r3 As==10
    5712:	82 4c c0 03 	mov	r12,	&0x03c0	;
    5716:	1c 42 c0 03 	mov	&0x03c0,r12	;0x03c0
    571a:	3c f0 fe ff 	and	#65534,	r12	;#0xfffe
    571e:	82 4c c0 03 	mov	r12,	&0x03c0	;
    5722:	00 3c       	jmp	$+2      	;abs 0x5724
    5724:	3c 41       	pop	r12		;
    5726:	34 41       	pop	r4		;
    5728:	00 13       	reti			
	...

0000572c <init>:
    572c:	04 12       	push	r4		;
    572e:	04 41       	mov	r1,	r4	;
    5730:	21 82       	sub	#4,	r1	;r2 As==10
    5732:	1c 42 c0 03 	mov	&0x03c0,r12	;0x03c0
    5736:	3c f0 ff e6 	and	#59135,	r12	;#0xe6ff
    573a:	82 4c c0 03 	mov	r12,	&0x03c0	;
    573e:	1c 42 c0 03 	mov	&0x03c0,r12	;0x03c0
    5742:	3c d0 00 02 	bis	#512,	r12	;#0x0200
    5746:	82 4c c0 03 	mov	r12,	&0x03c0	;
    574a:	1c 42 c0 03 	mov	&0x03c0,r12	;0x03c0
    574e:	3c d0 c0 00 	bis	#192,	r12	;#0x00c0
    5752:	82 4c c0 03 	mov	r12,	&0x03c0	;
    5756:	1c 42 c0 03 	mov	&0x03c0,r12	;0x03c0
    575a:	3c f0 ef ff 	and	#65519,	r12	;#0xffef
    575e:	82 4c c0 03 	mov	r12,	&0x03c0	;
    5762:	1c 42 c0 03 	mov	&0x03c0,r12	;0x03c0
    5766:	3c d0 20 00 	bis	#32,	r12	;#0x0020
    576a:	82 4c c0 03 	mov	r12,	&0x03c0	;
    576e:	1c 42 c0 03 	mov	&0x03c0,r12	;0x03c0
    5772:	2c d3       	bis	#2,	r12	;r3 As==10
    5774:	82 4c c0 03 	mov	r12,	&0x03c0	;
    5778:	b0 12 98 61 	call	#24984		;#0x6198
    577c:	5c 42 04 02 	mov.b	&0x0204,r12	;0x0204
    5780:	2c d3       	bis	#2,	r12	;r3 As==10
    5782:	4d 4c       	mov.b	r12,	r13	;
    5784:	c2 4d 04 02 	mov.b	r13,	&0x0204	;
    5788:	5c 42 04 02 	mov.b	&0x0204,r12	;0x0204
    578c:	2c d2       	bis	#4,	r12	;r2 As==10
    578e:	4d 4c       	mov.b	r12,	r13	;
    5790:	c2 4d 04 02 	mov.b	r13,	&0x0204	;
    5794:	5c 42 04 02 	mov.b	&0x0204,r12	;0x0204
    5798:	1c d3       	bis	#1,	r12	;r3 As==01
    579a:	4d 4c       	mov.b	r12,	r13	;
    579c:	c2 4d 04 02 	mov.b	r13,	&0x0204	;
    57a0:	b0 12 18 67 	call	#26392		;#0x6718
    57a4:	0c 41       	mov	r1,	r12	;
    57a6:	bc 40 00 44 	mov	#17408,	0(r12)	;#0x4400
    57aa:	00 00 
    57ac:	b0 12 b4 62 	call	#25268		;#0x62b4
    57b0:	84 4f fe ff 	mov	r15,	-2(r4)	; 0xfffe
    57b4:	00 3c       	jmp	$+2      	;abs 0x57b6
    57b6:	ff 3f       	jmp	$+0      	;abs 0x57b6

000057b8 <task_init>:
    57b8:	04 12       	push	r4		;
    57ba:	04 41       	mov	r1,	r4	;
    57bc:	21 82       	sub	#4,	r1	;r2 As==10
    57be:	0c 41       	mov	r1,	r12	;
    57c0:	bc 40 00 44 	mov	#17408,	0(r12)	;#0x4400
    57c4:	00 00 
    57c6:	b0 12 b4 62 	call	#25268		;#0x62b4
    57ca:	82 43 f4 46 	mov	#0,	&0x46f4	;r3 As==00
    57ce:	82 43 f6 46 	mov	#0,	&0x46f6	;r3 As==00
    57d2:	82 43 f8 46 	mov	#0,	&0x46f8	;r3 As==00
    57d6:	82 43 fa 46 	mov	#0,	&0x46fa	;r3 As==00
    57da:	82 43 fc 46 	mov	#0,	&0x46fc	;r3 As==00
    57de:	92 43 fe 46 	mov	#1,	&0x46fe	;r3 As==01
    57e2:	3c 40 26 45 	mov	#17702,	r12	;#0x4526
    57e6:	84 4f fe ff 	mov	r15,	-2(r4)	; 0xfffe
    57ea:	0f 4c       	mov	r12,	r15	;
    57ec:	b0 12 88 68 	call	#26760		;#0x6888
    57f0:	21 52       	add	#4,	r1	;r2 As==10
    57f2:	34 41       	pop	r4		;
    57f4:	30 41       	ret			
	...

000057f8 <task_init_dict>:
    57f8:	04 12       	push	r4		;
    57fa:	04 41       	mov	r1,	r4	;
    57fc:	31 80 0a 00 	sub	#10,	r1	;#0x000a
    5800:	1c 42 f8 46 	mov	&0x46f8,r12	;0x46f8
    5804:	84 4c fe ff 	mov	r12,	-2(r4)	; 0xfffe
    5808:	84 4c f8 ff 	mov	r12,	-8(r4)	; 0xfff8
    580c:	84 43 fa ff 	mov	#0,	-6(r4)	;r3 As==00, 0xfffa
    5810:	84 43 fc ff 	mov	#0,	-4(r4)	;r3 As==00, 0xfffc
    5814:	1c 44 fe ff 	mov	-2(r4),	r12	;
    5818:	84 4c f6 ff 	mov	r12,	-10(r4)	; 0xfff6
    581c:	3e 40 06 00 	mov	#6,	r14	;
    5820:	0f 4c       	mov	r12,	r15	;
    5822:	b0 12 e8 6b 	call	#27624		;#0x6be8
    5826:	1c 44 fc ff 	mov	-4(r4),	r12	;
    582a:	8f 4c 04 47 	mov	r12,	18180(r15); 0x4704
    582e:	1c 44 fa ff 	mov	-6(r4),	r12	;
    5832:	8f 4c 02 47 	mov	r12,	18178(r15); 0x4702
    5836:	1c 44 f8 ff 	mov	-8(r4),	r12	;
    583a:	8f 4c 00 47 	mov	r12,	18176(r15); 0x4700
    583e:	1c 44 fe ff 	mov	-2(r4),	r12	;
    5842:	1c 53       	inc	r12		;
    5844:	84 4c fe ff 	mov	r12,	-2(r4)	; 0xfffe
    5848:	3c 90 00 01 	cmp	#256,	r12	;#0x0100
    584c:	0d 2c       	jc	$+28     	;abs 0x5868
    584e:	00 3c       	jmp	$+2      	;abs 0x5850
    5850:	3e 40 f8 46 	mov	#18168,	r14	;#0x46f8
    5854:	0f 44       	mov	r4,	r15	;
    5856:	2f 83       	decd	r15		;
    5858:	2d 43       	mov	#2,	r13	;r3 As==10
    585a:	b0 12 e8 69 	call	#27112		;#0x69e8
    585e:	3f 40 26 45 	mov	#17702,	r15	;#0x4526
    5862:	b0 12 88 68 	call	#26760		;#0x6888
    5866:	0f 3c       	jmp	$+32     	;abs 0x5886
    5868:	b2 40 00 01 	mov	#256,	&0x5300	;#0x0100
    586c:	00 53 
    586e:	3e 40 f8 46 	mov	#18168,	r14	;#0x46f8
    5872:	0f 44       	mov	r4,	r15	;
    5874:	2f 83       	decd	r15		;
    5876:	2d 43       	mov	#2,	r13	;r3 As==10
    5878:	b0 12 e8 69 	call	#27112		;#0x69e8
    587c:	3f 40 50 45 	mov	#17744,	r15	;#0x4550
    5880:	b0 12 88 68 	call	#26760		;#0x6888
    5884:	00 3c       	jmp	$+2      	;abs 0x5886
    5886:	31 50 0a 00 	add	#10,	r1	;#0x000a
    588a:	34 41       	pop	r4		;
    588c:	30 41       	ret			
	...

00005890 <task_sample>:
    5890:	04 12       	push	r4		;
    5892:	04 41       	mov	r1,	r4	;
    5894:	21 82       	sub	#4,	r1	;r2 As==10
    5896:	1c 42 fc 46 	mov	&0x46fc,r12	;0x46fc
    589a:	84 4c fe ff 	mov	r12,	-2(r4)	; 0xfffe
    589e:	1c 53       	inc	r12		;
    58a0:	84 4c fc ff 	mov	r12,	-4(r4)	; 0xfffc
    58a4:	2c 93       	cmp	#2,	r12	;r3 As==10
    58a6:	04 20       	jnz	$+10     	;abs 0x58b0
    58a8:	00 3c       	jmp	$+2      	;abs 0x58aa
    58aa:	84 43 fc ff 	mov	#0,	-4(r4)	;r3 As==00, 0xfffc
    58ae:	00 3c       	jmp	$+2      	;abs 0x58b0
    58b0:	1c 44 fe ff 	mov	-2(r4),	r12	;
    58b4:	0c 93       	cmp	#0,	r12	;r3 As==00
    58b6:	11 20       	jnz	$+36     	;abs 0x58da
    58b8:	00 3c       	jmp	$+2      	;abs 0x58ba
    58ba:	1c 44 fc ff 	mov	-4(r4),	r12	;
    58be:	84 4c fe ff 	mov	r12,	-2(r4)	; 0xfffe
    58c2:	3e 40 fc 46 	mov	#18172,	r14	;#0x46fc
    58c6:	0f 44       	mov	r4,	r15	;
    58c8:	2f 83       	decd	r15		;
    58ca:	2d 43       	mov	#2,	r13	;r3 As==10
    58cc:	b0 12 e8 69 	call	#27112		;#0x69e8
    58d0:	3f 40 7a 45 	mov	#17786,	r15	;#0x457a
    58d4:	b0 12 88 68 	call	#26760		;#0x6888
    58d8:	10 3c       	jmp	$+34     	;abs 0x58fa
    58da:	1c 44 fc ff 	mov	-4(r4),	r12	;
    58de:	84 4c fe ff 	mov	r12,	-2(r4)	; 0xfffe
    58e2:	3e 40 fc 46 	mov	#18172,	r14	;#0x46fc
    58e6:	0f 44       	mov	r4,	r15	;
    58e8:	2f 83       	decd	r15		;
    58ea:	2d 43       	mov	#2,	r13	;r3 As==10
    58ec:	b0 12 e8 69 	call	#27112		;#0x69e8
    58f0:	3f 40 a4 45 	mov	#17828,	r15	;#0x45a4
    58f4:	b0 12 88 68 	call	#26760		;#0x6888
    58f8:	00 3c       	jmp	$+2      	;abs 0x58fa
    58fa:	21 52       	add	#4,	r1	;r2 As==10
    58fc:	34 41       	pop	r4		;
    58fe:	30 41       	ret			

00005900 <task_measure_temp>:
    5900:	04 12       	push	r4		;
    5902:	04 41       	mov	r1,	r4	;
    5904:	31 82       	sub	#8,	r1	;r2 As==11
    5906:	3e 40 fa 46 	mov	#18170,	r14	;#0x46fa
    590a:	1c 42 fa 46 	mov	&0x46fa,r12	;0x46fa
    590e:	84 4c fe ff 	mov	r12,	-2(r4)	; 0xfffe
    5912:	84 4c fc ff 	mov	r12,	-4(r4)	; 0xfffc
    5916:	0f 4c       	mov	r12,	r15	;
    5918:	84 4e f8 ff 	mov	r14,	-8(r4)	; 0xfff8
    591c:	b0 12 b4 61 	call	#25012		;#0x61b4
    5920:	84 4f fa ff 	mov	r15,	-6(r4)	; 0xfffa
    5924:	84 4f fc ff 	mov	r15,	-4(r4)	; 0xfffc
    5928:	84 4f fe ff 	mov	r15,	-2(r4)	; 0xfffe
    592c:	1c 44 fa ff 	mov	-6(r4),	r12	;
    5930:	82 4c 02 53 	mov	r12,	&0x5302	;
    5934:	0f 44       	mov	r4,	r15	;
    5936:	2f 83       	decd	r15		;
    5938:	2d 43       	mov	#2,	r13	;r3 As==10
    593a:	1e 44 f8 ff 	mov	-8(r4),	r14	;
    593e:	b0 12 e8 69 	call	#27112		;#0x69e8
    5942:	3f 40 a4 45 	mov	#17828,	r15	;#0x45a4
    5946:	b0 12 88 68 	call	#26760		;#0x6888
    594a:	31 52       	add	#8,	r1	;r2 As==11
    594c:	34 41       	pop	r4		;
    594e:	30 41       	ret			

00005950 <task_letterize>:
    5950:	04 12       	push	r4		;
    5952:	04 41       	mov	r1,	r4	;
    5954:	31 80 10 00 	sub	#16,	r1	;#0x0010
    5958:	1c 42 fc 46 	mov	&0x46fc,r12	;0x46fc
    595c:	84 4c fe ff 	mov	r12,	-2(r4)	; 0xfffe
    5960:	0c 93       	cmp	#0,	r12	;r3 As==00
    5962:	04 20       	jnz	$+10     	;abs 0x596c
    5964:	00 3c       	jmp	$+2      	;abs 0x5966
    5966:	a4 43 fe ff 	mov	#2,	-2(r4)	;r3 As==10, 0xfffe
    596a:	06 3c       	jmp	$+14     	;abs 0x5978
    596c:	1c 44 fe ff 	mov	-2(r4),	r12	;
    5970:	3c 53       	add	#-1,	r12	;r3 As==11
    5972:	84 4c fe ff 	mov	r12,	-2(r4)	; 0xfffe
    5976:	00 3c       	jmp	$+2      	;abs 0x5978
    5978:	1c 44 fe ff 	mov	-2(r4),	r12	;
    597c:	0c 5c       	rla	r12		;
    597e:	0c 5c       	rla	r12		;
    5980:	0c 5c       	rla	r12		;
    5982:	84 4c fc ff 	mov	r12,	-4(r4)	; 0xfffc
    5986:	1c 42 02 53 	mov	&0x5302,r12	;0x5302
    598a:	5d 44 fc ff 	mov.b	-4(r4),	r13	;
    598e:	3e 40 ff 00 	mov	#255,	r14	;#0x00ff
    5992:	4d 93       	cmp.b	#0,	r13	;r3 As==00
    5994:	4f 4d       	mov.b	r13,	r15	;
    5996:	84 4c f8 ff 	mov	r12,	-8(r4)	; 0xfff8
    599a:	c4 4d f7 ff 	mov.b	r13,	-9(r4)	; 0xfff7
    599e:	84 4e f4 ff 	mov	r14,	-12(r4)	; 0xfff4
    59a2:	c4 4f f3 ff 	mov.b	r15,	-13(r4)	; 0xfff3
    59a6:	0b 24       	jz	$+24     	;abs 0x59be
    59a8:	5c 44 f3 ff 	mov.b	-13(r4),r12	;0xfffffff3
    59ac:	1d 44 f4 ff 	mov	-12(r4),r13	;0xfffffff4
    59b0:	0d 5d       	rla	r13		;
    59b2:	5c 83       	dec.b	r12		;
    59b4:	84 4d f4 ff 	mov	r13,	-12(r4)	; 0xfff4
    59b8:	c4 4c f3 ff 	mov.b	r12,	-13(r4)	; 0xfff3
    59bc:	f5 23       	jnz	$-20     	;abs 0x59a8
    59be:	1c 44 f4 ff 	mov	-12(r4),r12	;0xfffffff4
    59c2:	1d 44 f8 ff 	mov	-8(r4),	r13	;
    59c6:	0d fc       	and	r12,	r13	;
    59c8:	5e 44 f7 ff 	mov.b	-9(r4),	r14	;
    59cc:	4e 93       	cmp.b	#0,	r14	;r3 As==00
    59ce:	c4 4e f2 ff 	mov.b	r14,	-14(r4)	; 0xfff2
    59d2:	84 4d f0 ff 	mov	r13,	-16(r4)	; 0xfff0
    59d6:	0c 24       	jz	$+26     	;abs 0x59f0
    59d8:	5c 44 f2 ff 	mov.b	-14(r4),r12	;0xfffffff2
    59dc:	1d 44 f0 ff 	mov	-16(r4),r13	;0xfffffff0
    59e0:	12 c3       	clrc			
    59e2:	0d 10       	rrc	r13		;
    59e4:	5c 83       	dec.b	r12		;
    59e6:	84 4d f0 ff 	mov	r13,	-16(r4)	; 0xfff0
    59ea:	c4 4c f2 ff 	mov.b	r12,	-14(r4)	; 0xfff2
    59ee:	f4 23       	jnz	$-22     	;abs 0x59d8
    59f0:	1c 44 f0 ff 	mov	-16(r4),r12	;0xfffffff0
    59f4:	84 4c fa ff 	mov	r12,	-6(r4)	; 0xfffa
    59f8:	82 4c f8 46 	mov	r12,	&0x46f8	;
    59fc:	3f 40 ce 45 	mov	#17870,	r15	;#0x45ce
    5a00:	b0 12 88 68 	call	#26760		;#0x6888
    5a04:	31 50 10 00 	add	#16,	r1	;#0x0010
    5a08:	34 41       	pop	r4		;
    5a0a:	30 41       	ret			

00005a0c <task_compress>:
    5a0c:	04 12       	push	r4		;
    5a0e:	04 41       	mov	r1,	r4	;
    5a10:	31 80 0c 00 	sub	#12,	r1	;#0x000c
    5a14:	3e 40 fe 46 	mov	#18174,	r14	;#0x46fe
    5a18:	1c 42 fe 46 	mov	&0x46fe,r12	;0x46fe
    5a1c:	84 4c fe ff 	mov	r12,	-2(r4)	; 0xfffe
    5a20:	1c 42 f4 46 	mov	&0x46f4,r12	;0x46f4
    5a24:	84 4c f6 ff 	mov	r12,	-10(r4)	; 0xfff6
    5a28:	3d 40 06 00 	mov	#6,	r13	;
    5a2c:	0f 4c       	mov	r12,	r15	;
    5a2e:	84 4e f4 ff 	mov	r14,	-12(r4)	; 0xfff4
    5a32:	0e 4d       	mov	r13,	r14	;
    5a34:	b0 12 e8 6b 	call	#27624		;#0x6be8
    5a38:	1c 4f 04 47 	mov	18180(r15),r12	;0x04704
    5a3c:	84 4c fc ff 	mov	r12,	-4(r4)	; 0xfffc
    5a40:	1c 4f 02 47 	mov	18178(r15),r12	;0x04702
    5a44:	84 4c fa ff 	mov	r12,	-6(r4)	; 0xfffa
    5a48:	1c 4f 00 47 	mov	18176(r15),r12	;0x04700
    5a4c:	84 4c f8 ff 	mov	r12,	-8(r4)	; 0xfff8
    5a50:	1c 44 fc ff 	mov	-4(r4),	r12	;
    5a54:	82 4c 04 53 	mov	r12,	&0x5304	;
    5a58:	1c 44 fc ff 	mov	-4(r4),	r12	;
    5a5c:	82 4c 0a 53 	mov	r12,	&0x530a	;
    5a60:	1c 44 fa ff 	mov	-6(r4),	r12	;
    5a64:	82 4c 08 53 	mov	r12,	&0x5308	;
    5a68:	1c 44 f8 ff 	mov	-8(r4),	r12	;
    5a6c:	82 4c 06 53 	mov	r12,	&0x5306	;
    5a70:	1c 44 f6 ff 	mov	-10(r4),r12	;0xfffffff6
    5a74:	82 4c 0c 53 	mov	r12,	&0x530c	;
    5a78:	1c 44 fc ff 	mov	-4(r4),	r12	;
    5a7c:	82 4c 0e 53 	mov	r12,	&0x530e	;
    5a80:	1c 44 fe ff 	mov	-2(r4),	r12	;
    5a84:	1c 53       	inc	r12		;
    5a86:	84 4c fe ff 	mov	r12,	-2(r4)	; 0xfffe
    5a8a:	0f 44       	mov	r4,	r15	;
    5a8c:	2f 83       	decd	r15		;
    5a8e:	2d 43       	mov	#2,	r13	;r3 As==10
    5a90:	1e 44 f4 ff 	mov	-12(r4),r14	;0xfffffff4
    5a94:	b0 12 e8 69 	call	#27112		;#0x69e8
    5a98:	3f 40 f8 45 	mov	#17912,	r15	;#0x45f8
    5a9c:	b0 12 88 68 	call	#26760		;#0x6888
    5aa0:	31 50 0c 00 	add	#12,	r1	;#0x000c
    5aa4:	34 41       	pop	r4		;
    5aa6:	30 41       	ret			

00005aa8 <task_find_sibling>:
    5aa8:	04 12       	push	r4		;
    5aaa:	04 41       	mov	r1,	r4	;
    5aac:	31 82       	sub	#8,	r1	;r2 As==11
    5aae:	1c 42 04 53 	mov	&0x5304,r12	;0x5304
    5ab2:	84 4c fe ff 	mov	r12,	-2(r4)	; 0xfffe
    5ab6:	0c 93       	cmp	#0,	r12	;r3 As==00
    5ab8:	41 24       	jz	$+132    	;abs 0x5b3c
    5aba:	00 3c       	jmp	$+2      	;abs 0x5abc
    5abc:	1c 44 fe ff 	mov	-2(r4),	r12	;
    5ac0:	84 4c fa ff 	mov	r12,	-6(r4)	; 0xfffa
    5ac4:	3e 40 06 00 	mov	#6,	r14	;
    5ac8:	0f 4c       	mov	r12,	r15	;
    5aca:	b0 12 e8 6b 	call	#27624		;#0x6be8
    5ace:	0c 4f       	mov	r15,	r12	;
    5ad0:	3c 50 00 47 	add	#18176,	r12	;#0x4700
    5ad4:	84 4c fc ff 	mov	r12,	-4(r4)	; 0xfffc
    5ad8:	1c 4f 00 47 	mov	18176(r15),r12	;0x04700
    5adc:	1e 42 f8 46 	mov	&0x46f8,r14	;0x46f8
    5ae0:	0c 9e       	cmp	r14,	r12	;
    5ae2:	11 20       	jnz	$+36     	;abs 0x5b06
    5ae4:	00 3c       	jmp	$+2      	;abs 0x5ae6
    5ae6:	1c 44 fe ff 	mov	-2(r4),	r12	;
    5aea:	82 4c f4 46 	mov	r12,	&0x46f4	;
    5aee:	3e 40 04 53 	mov	#21252,	r14	;#0x5304
    5af2:	0f 44       	mov	r4,	r15	;
    5af4:	2f 83       	decd	r15		;
    5af6:	2d 43       	mov	#2,	r13	;r3 As==10
    5af8:	b0 12 e8 69 	call	#27112		;#0x69e8
    5afc:	3f 40 a4 45 	mov	#17828,	r15	;#0x45a4
    5b00:	b0 12 88 68 	call	#26760		;#0x6888
    5b04:	1a 3c       	jmp	$+54     	;abs 0x5b3a
    5b06:	1c 44 fc ff 	mov	-4(r4),	r12	;
    5b0a:	1c 4c 02 00 	mov	2(r12),	r12	;
    5b0e:	0c 93       	cmp	#0,	r12	;r3 As==00
    5b10:	13 24       	jz	$+40     	;abs 0x5b38
    5b12:	00 3c       	jmp	$+2      	;abs 0x5b14
    5b14:	1c 44 fc ff 	mov	-4(r4),	r12	;
    5b18:	1c 4c 02 00 	mov	2(r12),	r12	;
    5b1c:	84 4c fe ff 	mov	r12,	-2(r4)	; 0xfffe
    5b20:	3e 40 04 53 	mov	#21252,	r14	;#0x5304
    5b24:	0f 44       	mov	r4,	r15	;
    5b26:	2f 83       	decd	r15		;
    5b28:	2d 43       	mov	#2,	r13	;r3 As==10
    5b2a:	b0 12 e8 69 	call	#27112		;#0x69e8
    5b2e:	3f 40 f8 45 	mov	#17912,	r15	;#0x45f8
    5b32:	b0 12 88 68 	call	#26760		;#0x6888
    5b36:	00 3c       	jmp	$+2      	;abs 0x5b38
    5b38:	00 3c       	jmp	$+2      	;abs 0x5b3a
    5b3a:	00 3c       	jmp	$+2      	;abs 0x5b3c
    5b3c:	1c 42 f8 46 	mov	&0x46f8,r12	;0x46f8
    5b40:	84 4c f8 ff 	mov	r12,	-8(r4)	; 0xfff8
    5b44:	82 4c f4 46 	mov	r12,	&0x46f4	;
    5b48:	1c 42 0e 53 	mov	&0x530e,r12	;0x530e
    5b4c:	0c 93       	cmp	#0,	r12	;r3 As==00
    5b4e:	0d 20       	jnz	$+28     	;abs 0x5b6a
    5b50:	00 3c       	jmp	$+2      	;abs 0x5b52
    5b52:	3e 40 04 53 	mov	#21252,	r14	;#0x5304
    5b56:	0f 44       	mov	r4,	r15	;
    5b58:	2f 83       	decd	r15		;
    5b5a:	2d 43       	mov	#2,	r13	;r3 As==10
    5b5c:	b0 12 e8 69 	call	#27112		;#0x69e8
    5b60:	3f 40 4c 46 	mov	#17996,	r15	;#0x464c
    5b64:	b0 12 88 68 	call	#26760		;#0x6888
    5b68:	0c 3c       	jmp	$+26     	;abs 0x5b82
    5b6a:	3e 40 04 53 	mov	#21252,	r14	;#0x5304
    5b6e:	0f 44       	mov	r4,	r15	;
    5b70:	2f 83       	decd	r15		;
    5b72:	2d 43       	mov	#2,	r13	;r3 As==10
    5b74:	b0 12 e8 69 	call	#27112		;#0x69e8
    5b78:	3f 40 22 46 	mov	#17954,	r15	;#0x4622
    5b7c:	b0 12 88 68 	call	#26760		;#0x6888
    5b80:	00 3c       	jmp	$+2      	;abs 0x5b82
    5b82:	31 52       	add	#8,	r1	;r2 As==11
    5b84:	34 41       	pop	r4		;
    5b86:	30 41       	ret			

00005b88 <task_add_node>:
    5b88:	04 12       	push	r4		;
    5b8a:	04 41       	mov	r1,	r4	;
    5b8c:	31 80 0e 00 	sub	#14,	r1	;#0x000e
    5b90:	1c 42 04 53 	mov	&0x5304,r12	;0x5304
    5b94:	84 4c fe ff 	mov	r12,	-2(r4)	; 0xfffe
    5b98:	84 4c fa ff 	mov	r12,	-6(r4)	; 0xfffa
    5b9c:	3e 40 06 00 	mov	#6,	r14	;
    5ba0:	0f 4c       	mov	r12,	r15	;
    5ba2:	b0 12 e8 6b 	call	#27624		;#0x6be8
    5ba6:	0c 4f       	mov	r15,	r12	;
    5ba8:	3c 50 00 47 	add	#18176,	r12	;#0x4700
    5bac:	84 4c fc ff 	mov	r12,	-4(r4)	; 0xfffc
    5bb0:	1c 4f 02 47 	mov	18178(r15),r12	;0x04702
    5bb4:	0c 93       	cmp	#0,	r12	;r3 As==00
    5bb6:	15 24       	jz	$+44     	;abs 0x5be2
    5bb8:	00 3c       	jmp	$+2      	;abs 0x5bba
    5bba:	1c 44 fc ff 	mov	-4(r4),	r12	;
    5bbe:	1c 4c 02 00 	mov	2(r12),	r12	;
    5bc2:	84 4c f8 ff 	mov	r12,	-8(r4)	; 0xfff8
    5bc6:	84 4c fe ff 	mov	r12,	-2(r4)	; 0xfffe
    5bca:	3e 40 04 53 	mov	#21252,	r14	;#0x5304
    5bce:	0f 44       	mov	r4,	r15	;
    5bd0:	2f 83       	decd	r15		;
    5bd2:	2d 43       	mov	#2,	r13	;r3 As==10
    5bd4:	b0 12 e8 69 	call	#27112		;#0x69e8
    5bd8:	3f 40 22 46 	mov	#17954,	r15	;#0x4622
    5bdc:	b0 12 88 68 	call	#26760		;#0x6888
    5be0:	25 3c       	jmp	$+76     	;abs 0x5c2c
    5be2:	1c 44 fc ff 	mov	-4(r4),	r12	;
    5be6:	1d 4c 04 00 	mov	4(r12),	r13	;
    5bea:	84 4d f6 ff 	mov	r13,	-10(r4)	; 0xfff6
    5bee:	1d 4c 02 00 	mov	2(r12),	r13	;
    5bf2:	84 4d f4 ff 	mov	r13,	-12(r4)	; 0xfff4
    5bf6:	2c 4c       	mov	@r12,	r12	;
    5bf8:	84 4c f2 ff 	mov	r12,	-14(r4)	; 0xfff2
    5bfc:	1c 44 f6 ff 	mov	-10(r4),r12	;0xfffffff6
    5c00:	82 4c 14 53 	mov	r12,	&0x5314	;
    5c04:	1c 44 f4 ff 	mov	-12(r4),r12	;0xfffffff4
    5c08:	82 4c 12 53 	mov	r12,	&0x5312	;
    5c0c:	1c 44 f2 ff 	mov	-14(r4),r12	;0xfffffff2
    5c10:	82 4c 10 53 	mov	r12,	&0x5310	;
    5c14:	3e 40 04 53 	mov	#21252,	r14	;#0x5304
    5c18:	0f 44       	mov	r4,	r15	;
    5c1a:	2f 83       	decd	r15		;
    5c1c:	2d 43       	mov	#2,	r13	;r3 As==10
    5c1e:	b0 12 e8 69 	call	#27112		;#0x69e8
    5c22:	3f 40 4c 46 	mov	#17996,	r15	;#0x464c
    5c26:	b0 12 88 68 	call	#26760		;#0x6888
    5c2a:	00 3c       	jmp	$+2      	;abs 0x5c2c
    5c2c:	31 50 0e 00 	add	#14,	r1	;#0x000e
    5c30:	34 41       	pop	r4		;
    5c32:	30 41       	ret			

00005c34 <task_add_insert>:
    5c34:	04 12       	push	r4		;
    5c36:	04 41       	mov	r1,	r4	;
    5c38:	31 80 1a 00 	sub	#26,	r1	;#0x001a
    5c3c:	1c 42 00 53 	mov	&0x5300,r12	;0x5300
    5c40:	84 4c fe ff 	mov	r12,	-2(r4)	; 0xfffe
    5c44:	3c 90 00 02 	cmp	#512,	r12	;#0x0200
    5c48:	03 20       	jnz	$+8      	;abs 0x5c50
    5c4a:	00 3c       	jmp	$+2      	;abs 0x5c4c
    5c4c:	00 3c       	jmp	$+2      	;abs 0x5c4e
    5c4e:	ff 3f       	jmp	$+0      	;abs 0x5c4e
    5c50:	1c 44 fe ff 	mov	-2(r4),	r12	;
    5c54:	84 4c fc ff 	mov	r12,	-4(r4)	; 0xfffc
    5c58:	1c 42 f8 46 	mov	&0x46f8,r12	;0x46f8
    5c5c:	84 4c f6 ff 	mov	r12,	-10(r4)	; 0xfff6
    5c60:	84 43 f8 ff 	mov	#0,	-8(r4)	;r3 As==00, 0xfff8
    5c64:	84 43 fa ff 	mov	#0,	-6(r4)	;r3 As==00, 0xfffa
    5c68:	1c 42 0a 53 	mov	&0x530a,r12	;0x530a
    5c6c:	0c 93       	cmp	#0,	r12	;r3 As==00
    5c6e:	27 20       	jnz	$+80     	;abs 0x5cbe
    5c70:	00 3c       	jmp	$+2      	;abs 0x5c72
    5c72:	1c 42 0a 53 	mov	&0x530a,r12	;0x530a
    5c76:	84 4c f4 ff 	mov	r12,	-12(r4)	; 0xfff4
    5c7a:	1c 42 08 53 	mov	&0x5308,r12	;0x5308
    5c7e:	84 4c f2 ff 	mov	r12,	-14(r4)	; 0xfff2
    5c82:	1c 42 06 53 	mov	&0x5306,r12	;0x5306
    5c86:	84 4c f0 ff 	mov	r12,	-16(r4)	; 0xfff0
    5c8a:	1c 44 fc ff 	mov	-4(r4),	r12	;
    5c8e:	84 4c f4 ff 	mov	r12,	-12(r4)	; 0xfff4
    5c92:	1c 42 0c 53 	mov	&0x530c,r12	;0x530c
    5c96:	84 4c ee ff 	mov	r12,	-18(r4)	; 0xffee
    5c9a:	3e 40 06 00 	mov	#6,	r14	;
    5c9e:	0f 4c       	mov	r12,	r15	;
    5ca0:	b0 12 e8 6b 	call	#27624		;#0x6be8
    5ca4:	1c 44 f4 ff 	mov	-12(r4),r12	;0xfffffff4
    5ca8:	8f 4c 04 47 	mov	r12,	18180(r15); 0x4704
    5cac:	1c 44 f2 ff 	mov	-14(r4),r12	;0xfffffff2
    5cb0:	8f 4c 02 47 	mov	r12,	18178(r15); 0x4702
    5cb4:	1c 44 f0 ff 	mov	-16(r4),r12	;0xfffffff0
    5cb8:	8f 4c 00 47 	mov	r12,	18176(r15); 0x4700
    5cbc:	27 3c       	jmp	$+80     	;abs 0x5d0c
    5cbe:	1c 42 04 53 	mov	&0x5304,r12	;0x5304
    5cc2:	84 4c ec ff 	mov	r12,	-20(r4)	; 0xffec
    5cc6:	1c 42 14 53 	mov	&0x5314,r12	;0x5314
    5cca:	84 4c ea ff 	mov	r12,	-22(r4)	; 0xffea
    5cce:	1c 42 12 53 	mov	&0x5312,r12	;0x5312
    5cd2:	84 4c e8 ff 	mov	r12,	-24(r4)	; 0xffe8
    5cd6:	1c 42 10 53 	mov	&0x5310,r12	;0x5310
    5cda:	84 4c e6 ff 	mov	r12,	-26(r4)	; 0xffe6
    5cde:	1c 44 fc ff 	mov	-4(r4),	r12	;
    5ce2:	84 4c e8 ff 	mov	r12,	-24(r4)	; 0xffe8
    5ce6:	1f 44 ec ff 	mov	-20(r4),r15	;0xffffffec
    5cea:	3e 40 06 00 	mov	#6,	r14	;
    5cee:	b0 12 e8 6b 	call	#27624		;#0x6be8
    5cf2:	1c 44 ea ff 	mov	-22(r4),r12	;0xffffffea
    5cf6:	8f 4c 04 47 	mov	r12,	18180(r15); 0x4704
    5cfa:	1c 44 e8 ff 	mov	-24(r4),r12	;0xffffffe8
    5cfe:	8f 4c 02 47 	mov	r12,	18178(r15); 0x4702
    5d02:	1c 44 e6 ff 	mov	-26(r4),r12	;0xffffffe6
    5d06:	8f 4c 00 47 	mov	r12,	18176(r15); 0x4700
    5d0a:	00 3c       	jmp	$+2      	;abs 0x5d0c
    5d0c:	1f 44 fc ff 	mov	-4(r4),	r15	;
    5d10:	3e 40 06 00 	mov	#6,	r14	;
    5d14:	b0 12 e8 6b 	call	#27624		;#0x6be8
    5d18:	1e 44 fa ff 	mov	-6(r4),	r14	;
    5d1c:	8f 4e 04 47 	mov	r14,	18180(r15); 0x4704
    5d20:	1e 44 f8 ff 	mov	-8(r4),	r14	;
    5d24:	8f 4e 02 47 	mov	r14,	18178(r15); 0x4702
    5d28:	1e 44 f6 ff 	mov	-10(r4),r14	;0xfffffff6
    5d2c:	8f 4e 00 47 	mov	r14,	18176(r15); 0x4700
    5d30:	1e 42 0c 53 	mov	&0x530c,r14	;0x530c
    5d34:	82 4e 16 53 	mov	r14,	&0x5316	;
    5d38:	1e 44 fe ff 	mov	-2(r4),	r14	;
    5d3c:	1e 53       	inc	r14		;
    5d3e:	84 4e fe ff 	mov	r14,	-2(r4)	; 0xfffe
    5d42:	3e 40 00 53 	mov	#21248,	r14	;#0x5300
    5d46:	0f 44       	mov	r4,	r15	;
    5d48:	2f 83       	decd	r15		;
    5d4a:	2d 43       	mov	#2,	r13	;r3 As==10
    5d4c:	b0 12 e8 69 	call	#27112		;#0x69e8
    5d50:	3f 40 76 46 	mov	#18038,	r15	;#0x4676
    5d54:	b0 12 88 68 	call	#26760		;#0x6888
    5d58:	31 50 1a 00 	add	#26,	r1	;#0x001a
    5d5c:	34 41       	pop	r4		;
    5d5e:	30 41       	ret			

00005d60 <task_append_compressed>:
    5d60:	04 12       	push	r4		;
    5d62:	04 41       	mov	r1,	r4	;
    5d64:	31 80 06 00 	sub	#6,	r1	;
    5d68:	1c 42 f6 46 	mov	&0x46f6,r12	;0x46f6
    5d6c:	84 4c fe ff 	mov	r12,	-2(r4)	; 0xfffe
    5d70:	84 4c fc ff 	mov	r12,	-4(r4)	; 0xfffc
    5d74:	1d 42 16 53 	mov	&0x5316,r13	;0x5316
    5d78:	3e 40 06 00 	mov	#6,	r14	;
    5d7c:	0f 4c       	mov	r12,	r15	;
    5d7e:	84 4d fa ff 	mov	r13,	-6(r4)	; 0xfffa
    5d82:	b0 12 e8 6b 	call	#27624		;#0x6be8
    5d86:	1c 44 fa ff 	mov	-6(r4),	r12	;
    5d8a:	8f 4c 18 53 	mov	r12,	21272(r15); 0x5318
    5d8e:	1c 44 fe ff 	mov	-2(r4),	r12	;
    5d92:	1c 53       	inc	r12		;
    5d94:	84 4c fe ff 	mov	r12,	-2(r4)	; 0xfffe
    5d98:	3c 90 40 00 	cmp	#64,	r12	;#0x0040
    5d9c:	0d 20       	jnz	$+28     	;abs 0x5db8
    5d9e:	00 3c       	jmp	$+2      	;abs 0x5da0
    5da0:	3e 40 f6 46 	mov	#18166,	r14	;#0x46f6
    5da4:	0f 44       	mov	r4,	r15	;
    5da6:	2f 83       	decd	r15		;
    5da8:	2d 43       	mov	#2,	r13	;r3 As==10
    5daa:	b0 12 e8 69 	call	#27112		;#0x69e8
    5dae:	3f 40 a0 46 	mov	#18080,	r15	;#0x46a0
    5db2:	b0 12 88 68 	call	#26760		;#0x6888
    5db6:	0c 3c       	jmp	$+26     	;abs 0x5dd0
    5db8:	3e 40 f6 46 	mov	#18166,	r14	;#0x46f6
    5dbc:	0f 44       	mov	r4,	r15	;
    5dbe:	2f 83       	decd	r15		;
    5dc0:	2d 43       	mov	#2,	r13	;r3 As==10
    5dc2:	b0 12 e8 69 	call	#27112		;#0x69e8
    5dc6:	3f 40 50 45 	mov	#17744,	r15	;#0x4550
    5dca:	b0 12 88 68 	call	#26760		;#0x6888
    5dce:	00 3c       	jmp	$+2      	;abs 0x5dd0
    5dd0:	31 50 06 00 	add	#6,	r1	;
    5dd4:	34 41       	pop	r4		;
    5dd6:	30 41       	ret			

00005dd8 <task_print>:
    5dd8:	04 12       	push	r4		;
    5dda:	04 41       	mov	r1,	r4	;
    5ddc:	31 80 14 00 	sub	#20,	r1	;#0x0014
    5de0:	0c 41       	mov	r1,	r12	;
    5de2:	bc 40 0e 44 	mov	#17422,	0(r12)	;#0x440e
    5de6:	00 00 
    5de8:	b0 12 b4 62 	call	#25268		;#0x62b4
    5dec:	84 43 fe ff 	mov	#0,	-2(r4)	;r3 As==00, 0xfffe
    5df0:	84 4f fa ff 	mov	r15,	-6(r4)	; 0xfffa
    5df4:	00 3c       	jmp	$+2      	;abs 0x5df6
    5df6:	1c 44 fe ff 	mov	-2(r4),	r12	;
    5dfa:	3c 90 40 00 	cmp	#64,	r12	;#0x0040
    5dfe:	31 2c       	jc	$+100    	;abs 0x5e62
    5e00:	00 3c       	jmp	$+2      	;abs 0x5e02
    5e02:	1f 44 fe ff 	mov	-2(r4),	r15	;
    5e06:	3e 40 06 00 	mov	#6,	r14	;
    5e0a:	b0 12 e8 6b 	call	#27624		;#0x6be8
    5e0e:	1e 4f 18 53 	mov	21272(r15),r14	;0x05318
    5e12:	84 4e fc ff 	mov	r14,	-4(r4)	; 0xfffc
    5e16:	0f 41       	mov	r1,	r15	;
    5e18:	8f 4e 02 00 	mov	r14,	2(r15)	;
    5e1c:	bf 40 22 44 	mov	#17442,	0(r15)	;#0x4422
    5e20:	00 00 
    5e22:	b0 12 b4 62 	call	#25268		;#0x62b4
    5e26:	1e 44 fe ff 	mov	-2(r4),	r14	;
    5e2a:	0e 93       	cmp	#0,	r14	;r3 As==00
    5e2c:	84 4f f8 ff 	mov	r15,	-8(r4)	; 0xfff8
    5e30:	11 24       	jz	$+36     	;abs 0x5e54
    5e32:	00 3c       	jmp	$+2      	;abs 0x5e34
    5e34:	1c 44 fe ff 	mov	-2(r4),	r12	;
    5e38:	1c 53       	inc	r12		;
    5e3a:	3c b0 07 00 	bit	#7,	r12	;
    5e3e:	0a 20       	jnz	$+22     	;abs 0x5e54
    5e40:	00 3c       	jmp	$+2      	;abs 0x5e42
    5e42:	0c 41       	mov	r1,	r12	;
    5e44:	bc 40 1f 44 	mov	#17439,	0(r12)	;#0x441f
    5e48:	00 00 
    5e4a:	b0 12 b4 62 	call	#25268		;#0x62b4
    5e4e:	84 4f f6 ff 	mov	r15,	-10(r4)	; 0xfff6
    5e52:	00 3c       	jmp	$+2      	;abs 0x5e54
    5e54:	00 3c       	jmp	$+2      	;abs 0x5e56
    5e56:	1c 44 fe ff 	mov	-2(r4),	r12	;
    5e5a:	1c 53       	inc	r12		;
    5e5c:	84 4c fe ff 	mov	r12,	-2(r4)	; 0xfffe
    5e60:	ca 3f       	jmp	$-106    	;abs 0x5df6
    5e62:	0c 41       	mov	r1,	r12	;
    5e64:	bc 40 1f 44 	mov	#17439,	0(r12)	;#0x441f
    5e68:	00 00 
    5e6a:	b0 12 b4 62 	call	#25268		;#0x62b4
    5e6e:	1c 42 fe 46 	mov	&0x46fe,r12	;0x46fe
    5e72:	0d 41       	mov	r1,	r13	;
    5e74:	8d 4c 02 00 	mov	r12,	2(r13)	;
    5e78:	bd 40 40 00 	mov	#64,	4(r13)	;#0x0040
    5e7c:	04 00 
    5e7e:	bd 40 28 44 	mov	#17448,	0(r13)	;#0x4428
    5e82:	00 00 
    5e84:	84 4f f4 ff 	mov	r15,	-12(r4)	; 0xfff4
    5e88:	b0 12 b4 62 	call	#25268		;#0x62b4
    5e8c:	3c 40 ca 46 	mov	#18122,	r12	;#0x46ca
    5e90:	84 4f f2 ff 	mov	r15,	-14(r4)	; 0xfff2
    5e94:	0f 4c       	mov	r12,	r15	;
    5e96:	b0 12 88 68 	call	#26760		;#0x6888
    5e9a:	31 50 14 00 	add	#20,	r1	;#0x0014
    5e9e:	34 41       	pop	r4		;
    5ea0:	30 41       	ret			
	...

00005ea4 <task_done>:
    5ea4:	04 12       	push	r4		;
    5ea6:	04 41       	mov	r1,	r4	;
    5ea8:	31 80 32 00 	sub	#50,	r1	;#0x0032
    5eac:	84 43 fe ff 	mov	#0,	-2(r4)	;r3 As==00, 0xfffe
    5eb0:	0c 41       	mov	r1,	r12	;
    5eb2:	bc 40 2a 00 	mov	#42,	4(r12)	;#0x002a
    5eb6:	04 00 
    5eb8:	9c 43 02 00 	mov	#1,	2(r12)	;r3 As==01
    5ebc:	bc 40 45 44 	mov	#17477,	0(r12)	;#0x4445
    5ec0:	00 00 
    5ec2:	b0 12 b4 62 	call	#25268		;#0x62b4
    5ec6:	1c 44 fe ff 	mov	-2(r4),	r12	;
    5eca:	3c 50 f8 01 	add	#504,	r12	;#0x01f8
    5ece:	84 4c fe ff 	mov	r12,	-2(r4)	; 0xfffe
    5ed2:	0c 41       	mov	r1,	r12	;
    5ed4:	ac 43 04 00 	mov	#2,	4(r12)	;r3 As==10
    5ed8:	9c 43 02 00 	mov	#1,	2(r12)	;r3 As==01
    5edc:	bc 40 5b 44 	mov	#17499,	0(r12)	;#0x445b
    5ee0:	00 00 
    5ee2:	84 4f fa ff 	mov	r15,	-6(r4)	; 0xfffa
    5ee6:	b0 12 b4 62 	call	#25268		;#0x62b4
    5eea:	1c 44 fe ff 	mov	-2(r4),	r12	;
    5eee:	2c 53       	incd	r12		;
    5ef0:	84 4c fe ff 	mov	r12,	-2(r4)	; 0xfffe
    5ef4:	0c 41       	mov	r1,	r12	;
    5ef6:	ac 43 04 00 	mov	#2,	4(r12)	;r3 As==10
    5efa:	ac 43 02 00 	mov	#2,	2(r12)	;r3 As==10
    5efe:	bc 40 5b 44 	mov	#17499,	0(r12)	;#0x445b
    5f02:	00 00 
    5f04:	84 4f f8 ff 	mov	r15,	-8(r4)	; 0xfff8
    5f08:	b0 12 b4 62 	call	#25268		;#0x62b4
    5f0c:	1c 44 fe ff 	mov	-2(r4),	r12	;
    5f10:	2c 53       	incd	r12		;
    5f12:	84 4c fe ff 	mov	r12,	-2(r4)	; 0xfffe
    5f16:	0c 41       	mov	r1,	r12	;
    5f18:	ac 43 04 00 	mov	#2,	4(r12)	;r3 As==10
    5f1c:	bc 40 03 00 	mov	#3,	2(r12)	;
    5f20:	02 00 
    5f22:	bc 40 5b 44 	mov	#17499,	0(r12)	;#0x445b
    5f26:	00 00 
    5f28:	84 4f f6 ff 	mov	r15,	-10(r4)	; 0xfff6
    5f2c:	b0 12 b4 62 	call	#25268		;#0x62b4
    5f30:	1c 44 fe ff 	mov	-2(r4),	r12	;
    5f34:	2c 53       	incd	r12		;
    5f36:	84 4c fe ff 	mov	r12,	-2(r4)	; 0xfffe
    5f3a:	0c 41       	mov	r1,	r12	;
    5f3c:	ac 43 04 00 	mov	#2,	4(r12)	;r3 As==10
    5f40:	ac 42 02 00 	mov	#4,	2(r12)	;r2 As==10
    5f44:	bc 40 5b 44 	mov	#17499,	0(r12)	;#0x445b
    5f48:	00 00 
    5f4a:	84 4f f4 ff 	mov	r15,	-12(r4)	; 0xfff4
    5f4e:	b0 12 b4 62 	call	#25268		;#0x62b4
    5f52:	1c 44 fe ff 	mov	-2(r4),	r12	;
    5f56:	2c 53       	incd	r12		;
    5f58:	84 4c fe ff 	mov	r12,	-2(r4)	; 0xfffe
    5f5c:	0c 41       	mov	r1,	r12	;
    5f5e:	ac 43 04 00 	mov	#2,	4(r12)	;r3 As==10
    5f62:	bc 40 05 00 	mov	#5,	2(r12)	;
    5f66:	02 00 
    5f68:	bc 40 5b 44 	mov	#17499,	0(r12)	;#0x445b
    5f6c:	00 00 
    5f6e:	84 4f f2 ff 	mov	r15,	-14(r4)	; 0xfff2
    5f72:	b0 12 b4 62 	call	#25268		;#0x62b4
    5f76:	1c 44 fe ff 	mov	-2(r4),	r12	;
    5f7a:	2c 53       	incd	r12		;
    5f7c:	84 4c fe ff 	mov	r12,	-2(r4)	; 0xfffe
    5f80:	0c 41       	mov	r1,	r12	;
    5f82:	bc 40 00 0c 	mov	#3072,	4(r12)	;#0x0c00
    5f86:	04 00 
    5f88:	bc 40 06 00 	mov	#6,	2(r12)	;
    5f8c:	02 00 
    5f8e:	bc 40 5b 44 	mov	#17499,	0(r12)	;#0x445b
    5f92:	00 00 
    5f94:	84 4f f0 ff 	mov	r15,	-16(r4)	; 0xfff0
    5f98:	b0 12 b4 62 	call	#25268		;#0x62b4
    5f9c:	1c 44 fe ff 	mov	-2(r4),	r12	;
    5fa0:	3c 50 00 0c 	add	#3072,	r12	;#0x0c00
    5fa4:	84 4c fe ff 	mov	r12,	-2(r4)	; 0xfffe
    5fa8:	0c 41       	mov	r1,	r12	;
    5faa:	ac 43 04 00 	mov	#2,	4(r12)	;r3 As==10
    5fae:	bc 40 07 00 	mov	#7,	2(r12)	;
    5fb2:	02 00 
    5fb4:	bc 40 5b 44 	mov	#17499,	0(r12)	;#0x445b
    5fb8:	00 00 
    5fba:	84 4f ee ff 	mov	r15,	-18(r4)	; 0xffee
    5fbe:	b0 12 b4 62 	call	#25268		;#0x62b4
    5fc2:	1c 44 fe ff 	mov	-2(r4),	r12	;
    5fc6:	2c 53       	incd	r12		;
    5fc8:	84 4c fe ff 	mov	r12,	-2(r4)	; 0xfffe
    5fcc:	0c 41       	mov	r1,	r12	;
    5fce:	ac 43 04 00 	mov	#2,	4(r12)	;r3 As==10
    5fd2:	bc 42 02 00 	mov	#8,	2(r12)	;r2 As==11
    5fd6:	bc 40 5b 44 	mov	#17499,	0(r12)	;#0x445b
    5fda:	00 00 
    5fdc:	84 4f ec ff 	mov	r15,	-20(r4)	; 0xffec
    5fe0:	b0 12 b4 62 	call	#25268		;#0x62b4
    5fe4:	1c 44 fe ff 	mov	-2(r4),	r12	;
    5fe8:	2c 53       	incd	r12		;
    5fea:	84 4c fe ff 	mov	r12,	-2(r4)	; 0xfffe
    5fee:	0c 41       	mov	r1,	r12	;
    5ff0:	ac 43 04 00 	mov	#2,	4(r12)	;r3 As==10
    5ff4:	bc 40 09 00 	mov	#9,	2(r12)	;
    5ff8:	02 00 
    5ffa:	bc 40 5b 44 	mov	#17499,	0(r12)	;#0x445b
    5ffe:	00 00 
    6000:	84 4f ea ff 	mov	r15,	-22(r4)	; 0xffea
    6004:	b0 12 b4 62 	call	#25268		;#0x62b4
    6008:	1c 44 fe ff 	mov	-2(r4),	r12	;
    600c:	2c 53       	incd	r12		;
    600e:	84 4c fe ff 	mov	r12,	-2(r4)	; 0xfffe
    6012:	0c 41       	mov	r1,	r12	;
    6014:	ac 43 04 00 	mov	#2,	4(r12)	;r3 As==10
    6018:	bc 40 0b 00 	mov	#11,	2(r12)	;#0x000b
    601c:	02 00 
    601e:	bc 40 5b 44 	mov	#17499,	0(r12)	;#0x445b
    6022:	00 00 
    6024:	84 4f e8 ff 	mov	r15,	-24(r4)	; 0xffe8
    6028:	b0 12 b4 62 	call	#25268		;#0x62b4
    602c:	1c 44 fe ff 	mov	-2(r4),	r12	;
    6030:	2c 53       	incd	r12		;
    6032:	84 4c fe ff 	mov	r12,	-2(r4)	; 0xfffe
    6036:	0c 41       	mov	r1,	r12	;
    6038:	ac 43 04 00 	mov	#2,	4(r12)	;r3 As==10
    603c:	bc 40 0c 00 	mov	#12,	2(r12)	;#0x000c
    6040:	02 00 
    6042:	bc 40 5b 44 	mov	#17499,	0(r12)	;#0x445b
    6046:	00 00 
    6048:	84 4f e6 ff 	mov	r15,	-26(r4)	; 0xffe6
    604c:	b0 12 b4 62 	call	#25268		;#0x62b4
    6050:	1c 44 fe ff 	mov	-2(r4),	r12	;
    6054:	2c 53       	incd	r12		;
    6056:	84 4c fe ff 	mov	r12,	-2(r4)	; 0xfffe
    605a:	0c 41       	mov	r1,	r12	;
    605c:	ac 43 04 00 	mov	#2,	4(r12)	;r3 As==10
    6060:	bc 40 0d 00 	mov	#13,	2(r12)	;#0x000d
    6064:	02 00 
    6066:	bc 40 5b 44 	mov	#17499,	0(r12)	;#0x445b
    606a:	00 00 
    606c:	84 4f e4 ff 	mov	r15,	-28(r4)	; 0xffe4
    6070:	b0 12 b4 62 	call	#25268		;#0x62b4
    6074:	1c 44 fe ff 	mov	-2(r4),	r12	;
    6078:	2c 53       	incd	r12		;
    607a:	84 4c fe ff 	mov	r12,	-2(r4)	; 0xfffe
    607e:	0c 41       	mov	r1,	r12	;
    6080:	bc 40 06 00 	mov	#6,	4(r12)	;
    6084:	04 00 
    6086:	bc 40 0e 00 	mov	#14,	2(r12)	;#0x000e
    608a:	02 00 
    608c:	bc 40 5b 44 	mov	#17499,	0(r12)	;#0x445b
    6090:	00 00 
    6092:	84 4f e2 ff 	mov	r15,	-30(r4)	; 0xffe2
    6096:	b0 12 b4 62 	call	#25268		;#0x62b4
    609a:	1c 44 fe ff 	mov	-2(r4),	r12	;
    609e:	3c 50 06 00 	add	#6,	r12	;
    60a2:	84 4c fe ff 	mov	r12,	-2(r4)	; 0xfffe
    60a6:	0c 41       	mov	r1,	r12	;
    60a8:	bc 40 80 01 	mov	#384,	4(r12)	;#0x0180
    60ac:	04 00 
    60ae:	bc 40 0f 00 	mov	#15,	2(r12)	;#0x000f
    60b2:	02 00 
    60b4:	bc 40 5b 44 	mov	#17499,	0(r12)	;#0x445b
    60b8:	00 00 
    60ba:	84 4f e0 ff 	mov	r15,	-32(r4)	; 0xffe0
    60be:	b0 12 b4 62 	call	#25268		;#0x62b4
    60c2:	1c 44 fe ff 	mov	-2(r4),	r12	;
    60c6:	3c 50 80 01 	add	#384,	r12	;#0x0180
    60ca:	84 4c fe ff 	mov	r12,	-2(r4)	; 0xfffe
    60ce:	0c 41       	mov	r1,	r12	;
    60d0:	bc 40 06 00 	mov	#6,	4(r12)	;
    60d4:	04 00 
    60d6:	bc 40 10 00 	mov	#16,	2(r12)	;#0x0010
    60da:	02 00 
    60dc:	bc 40 5b 44 	mov	#17499,	0(r12)	;#0x445b
    60e0:	00 00 
    60e2:	84 4f de ff 	mov	r15,	-34(r4)	; 0xffde
    60e6:	b0 12 b4 62 	call	#25268		;#0x62b4
    60ea:	1c 44 fe ff 	mov	-2(r4),	r12	;
    60ee:	3c 50 06 00 	add	#6,	r12	;
    60f2:	84 4c fe ff 	mov	r12,	-2(r4)	; 0xfffe
    60f6:	0c 41       	mov	r1,	r12	;
    60f8:	ac 43 04 00 	mov	#2,	4(r12)	;r3 As==10
    60fc:	bc 40 11 00 	mov	#17,	2(r12)	;#0x0011
    6100:	02 00 
    6102:	bc 40 5b 44 	mov	#17499,	0(r12)	;#0x445b
    6106:	00 00 
    6108:	84 4f dc ff 	mov	r15,	-36(r4)	; 0xffdc
    610c:	b0 12 b4 62 	call	#25268		;#0x62b4
    6110:	1c 44 fe ff 	mov	-2(r4),	r12	;
    6114:	2c 53       	incd	r12		;
    6116:	84 4c fe ff 	mov	r12,	-2(r4)	; 0xfffe
    611a:	0c 41       	mov	r1,	r12	;
    611c:	bc 40 42 00 	mov	#66,	2(r12)	;#0x0042
    6120:	02 00 
    6122:	bc 40 74 44 	mov	#17524,	0(r12)	;#0x4474
    6126:	00 00 
    6128:	84 4f da ff 	mov	r15,	-38(r4)	; 0xffda
    612c:	b0 12 b4 62 	call	#25268		;#0x62b4
    6130:	1c 44 fe ff 	mov	-2(r4),	r12	;
    6134:	3c 50 42 00 	add	#66,	r12	;#0x0042
    6138:	84 4c fe ff 	mov	r12,	-2(r4)	; 0xfffe
    613c:	0c 41       	mov	r1,	r12	;
    613e:	ac 43 02 00 	mov	#2,	2(r12)	;r3 As==10
    6142:	bc 40 8c 44 	mov	#17548,	0(r12)	;#0x448c
    6146:	00 00 
    6148:	84 4f d8 ff 	mov	r15,	-40(r4)	; 0xffd8
    614c:	b0 12 b4 62 	call	#25268		;#0x62b4
    6150:	1c 44 fe ff 	mov	-2(r4),	r12	;
    6154:	2c 53       	incd	r12		;
    6156:	84 4c fe ff 	mov	r12,	-2(r4)	; 0xfffe
    615a:	0d 41       	mov	r1,	r13	;
    615c:	8d 4c 02 00 	mov	r12,	2(r13)	;
    6160:	bd 40 a8 44 	mov	#17576,	0(r13)	;#0x44a8
    6164:	00 00 
    6166:	84 4f d6 ff 	mov	r15,	-42(r4)	; 0xffd6
    616a:	b0 12 b4 62 	call	#25268		;#0x62b4
    616e:	84 4f d4 ff 	mov	r15,	-44(r4)	; 0xffd4
    6172:	31 50 32 00 	add	#50,	r1	;#0x0032
    6176:	34 41       	pop	r4		;
    6178:	30 41       	ret			
	...

0000617c <_entry_task>:
    617c:	04 12       	push	r4		;
    617e:	04 41       	mov	r1,	r4	;
    6180:	3f 40 fc 44 	mov	#17660,	r15	;#0x44fc
    6184:	b0 12 88 68 	call	#26760		;#0x6888
    6188:	34 41       	pop	r4		;
    618a:	30 41       	ret			

0000618c <_init>:
    618c:	04 12       	push	r4		;
    618e:	04 41       	mov	r1,	r4	;
    6190:	b0 12 2c 57 	call	#22316		;#0x572c
    6194:	34 41       	pop	r4		;
    6196:	30 41       	ret			

00006198 <init_hw>:
    6198:	04 12       	push	r4		;
    619a:	04 41       	mov	r1,	r4	;
    619c:	b0 12 00 62 	call	#25088		;#0x6200
    61a0:	1c 42 30 01 	mov	&0x0130,r12	;0x0130
    61a4:	3c f0 fe ff 	and	#65534,	r12	;#0xfffe
    61a8:	82 4c 30 01 	mov	r12,	&0x0130	;
    61ac:	b0 12 94 62 	call	#25236		;#0x6294
    61b0:	34 41       	pop	r4		;
    61b2:	30 41       	ret			

000061b4 <acquire_sample>:
    61b4:	04 12       	push	r4		;
    61b6:	04 41       	mov	r1,	r4	;
    61b8:	31 80 06 00 	sub	#6,	r1	;
    61bc:	0c 4f       	mov	r15,	r12	;
    61be:	84 4f fe ff 	mov	r15,	-2(r4)	; 0xfffe
    61c2:	1f 53       	inc	r15		;
    61c4:	3f f0 03 00 	and	#3,	r15	;
    61c8:	84 4f fc ff 	mov	r15,	-4(r4)	; 0xfffc
    61cc:	84 4c fa ff 	mov	r12,	-6(r4)	; 0xfffa
    61d0:	31 50 06 00 	add	#6,	r1	;
    61d4:	34 41       	pop	r4		;
    61d6:	30 41       	ret			

000061d8 <msp_watchdog_enable>:
    61d8:	04 12       	push	r4		;
    61da:	04 41       	mov	r1,	r4	;
    61dc:	21 83       	decd	r1		;
    61de:	4c 4f       	mov.b	r15,	r12	;
    61e0:	c4 4c ff ff 	mov.b	r12,	-1(r4)	; 0xffff
    61e4:	5f 44 ff ff 	mov.b	-1(r4),	r15	;
    61e8:	3f d0 08 5a 	bis	#23048,	r15	;#0x5a08
    61ec:	82 4f 5c 01 	mov	r15,	&0x015c	;
    61f0:	5c 44 ff ff 	mov.b	-1(r4),	r12	;
    61f4:	c2 4c 20 1c 	mov.b	r12,	&0x1c20	;
    61f8:	21 53       	incd	r1		;
    61fa:	34 41       	pop	r4		;
    61fc:	30 41       	ret			
	...

00006200 <msp_watchdog_disable>:
    6200:	04 12       	push	r4		;
    6202:	04 41       	mov	r1,	r4	;
    6204:	b2 40 80 5a 	mov	#23168,	&0x015c	;#0x5a80
    6208:	5c 01 
    620a:	34 41       	pop	r4		;
    620c:	30 41       	ret			
	...

00006210 <msp_watchdog_kick>:
    6210:	04 12       	push	r4		;
    6212:	04 41       	mov	r1,	r4	;
    6214:	5c 42 20 1c 	mov.b	&0x1c20,r12	;0x1c20
    6218:	3c d0 08 5a 	bis	#23048,	r12	;#0x5a08
    621c:	82 4c 5c 01 	mov	r12,	&0x015c	;
    6220:	34 41       	pop	r4		;
    6222:	30 41       	ret			

00006224 <memcpy>:
    6224:	04 12       	push	r4		;
    6226:	04 41       	mov	r1,	r4	;
    6228:	0b 12       	push	r11		;
    622a:	0a 12       	push	r10		;
    622c:	31 80 0e 00 	sub	#14,	r1	;#0x000e
    6230:	0c 4d       	mov	r13,	r12	;
    6232:	0b 4e       	mov	r14,	r11	;
    6234:	0a 4f       	mov	r15,	r10	;
    6236:	84 4f fa ff 	mov	r15,	-6(r4)	; 0xfffa
    623a:	84 4e f8 ff 	mov	r14,	-8(r4)	; 0xfff8
    623e:	84 4d f6 ff 	mov	r13,	-10(r4)	; 0xfff6
    6242:	84 43 f4 ff 	mov	#0,	-12(r4)	;r3 As==00, 0xfff4
    6246:	84 4c f2 ff 	mov	r12,	-14(r4)	; 0xfff2
    624a:	84 4b f0 ff 	mov	r11,	-16(r4)	; 0xfff0
    624e:	84 4a ee ff 	mov	r10,	-18(r4)	; 0xffee
    6252:	00 3c       	jmp	$+2      	;abs 0x6254
    6254:	1c 44 f4 ff 	mov	-12(r4),r12	;0xfffffff4
    6258:	1d 44 f6 ff 	mov	-10(r4),r13	;0xfffffff6
    625c:	0c 9d       	cmp	r13,	r12	;
    625e:	12 2c       	jc	$+38     	;abs 0x6284
    6260:	00 3c       	jmp	$+2      	;abs 0x6262
    6262:	1c 44 f8 ff 	mov	-8(r4),	r12	;
    6266:	1d 44 f4 ff 	mov	-12(r4),r13	;0xfffffff4
    626a:	0c 5d       	add	r13,	r12	;
    626c:	6e 4c       	mov.b	@r12,	r14	;
    626e:	1c 44 fa ff 	mov	-6(r4),	r12	;
    6272:	0c 5d       	add	r13,	r12	;
    6274:	cc 4e 00 00 	mov.b	r14,	0(r12)	;
    6278:	1c 44 f4 ff 	mov	-12(r4),r12	;0xfffffff4
    627c:	1c 53       	inc	r12		;
    627e:	84 4c f4 ff 	mov	r12,	-12(r4)	; 0xfff4
    6282:	e8 3f       	jmp	$-46     	;abs 0x6254
    6284:	1f 44 fa ff 	mov	-6(r4),	r15	;
    6288:	31 50 0e 00 	add	#14,	r1	;#0x000e
    628c:	3a 41       	pop	r10		;
    628e:	3b 41       	pop	r11		;
    6290:	34 41       	pop	r4		;
    6292:	30 41       	ret			

00006294 <msp_clock_setup>:
    6294:	04 12       	push	r4		;
    6296:	04 41       	mov	r1,	r4	;
    6298:	f2 40 a5 ff 	mov.b	#65445,	&0x0161	;#0xffa5
    629c:	61 01 
    629e:	b2 40 0c 00 	mov	#12,	&0x0162	;#0x000c
    62a2:	62 01 
    62a4:	b2 40 33 00 	mov	#51,	&0x0164	;#0x0033
    62a8:	64 01 
    62aa:	82 43 66 01 	mov	#0,	&0x0166	;r3 As==00
    62ae:	34 41       	pop	r4		;
    62b0:	30 41       	ret			
	...

000062b4 <printf>:
    62b4:	04 12       	push	r4		;
    62b6:	04 41       	mov	r1,	r4	;
    62b8:	31 80 20 00 	sub	#32,	r1	;#0x0020
    62bc:	1c 44 04 00 	mov	4(r4),	r12	;
    62c0:	84 4c fc ff 	mov	r12,	-4(r4)	; 0xfffc
    62c4:	0c 44       	mov	r4,	r12	;
    62c6:	3c 50 06 00 	add	#6,	r12	;
    62ca:	84 4c ee ff 	mov	r12,	-18(r4)	; 0xffee
    62ce:	00 3c       	jmp	$+2      	;abs 0x62d0
    62d0:	1c 44 fc ff 	mov	-4(r4),	r12	;
    62d4:	0d 4c       	mov	r12,	r13	;
    62d6:	1d 53       	inc	r13		;
    62d8:	84 4d fc ff 	mov	r13,	-4(r4)	; 0xfffc
    62dc:	6e 4c       	mov.b	@r12,	r14	;
    62de:	c4 4e fb ff 	mov.b	r14,	-5(r4)	; 0xfffb
    62e2:	4e 93       	cmp.b	#0,	r14	;r3 As==00
    62e4:	02 20       	jnz	$+6      	;abs 0x62ea
    62e6:	52 3d       	jmp	$+678    	;abs 0x658c
    62e8:	00 3c       	jmp	$+2      	;abs 0x62ea
    62ea:	5c 44 fb ff 	mov.b	-5(r4),	r12	;
    62ee:	7c 90 25 00 	cmp.b	#37,	r12	;#0x0025
    62f2:	02 24       	jz	$+6      	;abs 0x62f8
    62f4:	40 3d       	jmp	$+642    	;abs 0x6576
    62f6:	00 3c       	jmp	$+2      	;abs 0x62f8
    62f8:	84 43 f2 ff 	mov	#0,	-14(r4)	;r3 As==00, 0xfff2
    62fc:	00 3c       	jmp	$+2      	;abs 0x62fe
    62fe:	1c 44 fc ff 	mov	-4(r4),	r12	;
    6302:	0d 4c       	mov	r12,	r13	;
    6304:	1d 53       	inc	r13		;
    6306:	84 4d fc ff 	mov	r13,	-4(r4)	; 0xfffc
    630a:	6c 4c       	mov.b	@r12,	r12	;
    630c:	8c 11       	sxt	r12		;
    630e:	4e 4c       	mov.b	r12,	r14	;
    6310:	c4 4e fb ff 	mov.b	r14,	-5(r4)	; 0xfffb
    6314:	0c 93       	cmp	#0,	r12	;r3 As==00
    6316:	84 4c ec ff 	mov	r12,	-20(r4)	; 0xffec
    631a:	02 20       	jnz	$+6      	;abs 0x6320
    631c:	27 3d       	jmp	$+592    	;abs 0x656c
    631e:	00 3c       	jmp	$+2      	;abs 0x6320
    6320:	1c 44 ec ff 	mov	-20(r4),r12	;0xffffffec
    6324:	3c 90 30 00 	cmp	#48,	r12	;#0x0030
    6328:	02 20       	jnz	$+6      	;abs 0x632e
    632a:	0f 3d       	jmp	$+544    	;abs 0x654a
    632c:	00 3c       	jmp	$+2      	;abs 0x632e
    632e:	1c 44 ec ff 	mov	-20(r4),r12	;0xffffffec
    6332:	3c 90 63 00 	cmp	#99,	r12	;#0x0063
    6336:	34 24       	jz	$+106    	;abs 0x63a0
    6338:	00 3c       	jmp	$+2      	;abs 0x633a
    633a:	1c 44 ec ff 	mov	-20(r4),r12	;0xffffffec
    633e:	3c 90 69 00 	cmp	#105,	r12	;#0x0069
    6342:	3d 24       	jz	$+124    	;abs 0x63be
    6344:	00 3c       	jmp	$+2      	;abs 0x6346
    6346:	1c 44 ec ff 	mov	-20(r4),r12	;0xffffffec
    634a:	3c 90 6c 00 	cmp	#108,	r12	;#0x006c
    634e:	66 24       	jz	$+206    	;abs 0x641c
    6350:	00 3c       	jmp	$+2      	;abs 0x6352
    6352:	1c 44 ec ff 	mov	-20(r4),r12	;0xffffffec
    6356:	3c 90 6e 00 	cmp	#110,	r12	;#0x006e
    635a:	60 24       	jz	$+194    	;abs 0x641c
    635c:	00 3c       	jmp	$+2      	;abs 0x635e
    635e:	1c 44 ec ff 	mov	-20(r4),r12	;0xffffffec
    6362:	3c 90 73 00 	cmp	#115,	r12	;#0x0073
    6366:	0d 24       	jz	$+28     	;abs 0x6382
    6368:	00 3c       	jmp	$+2      	;abs 0x636a
    636a:	1c 44 ec ff 	mov	-20(r4),r12	;0xffffffec
    636e:	3c 90 75 00 	cmp	#117,	r12	;#0x0075
    6372:	25 24       	jz	$+76     	;abs 0x63be
    6374:	00 3c       	jmp	$+2      	;abs 0x6376
    6376:	1c 44 ec ff 	mov	-20(r4),r12	;0xffffffec
    637a:	3c 90 78 00 	cmp	#120,	r12	;#0x0078
    637e:	8a 24       	jz	$+278    	;abs 0x6494
    6380:	f8 3c       	jmp	$+498    	;abs 0x6572
    6382:	1c 44 ee ff 	mov	-18(r4),r12	;0xffffffee
    6386:	1c 53       	inc	r12		;
    6388:	3c f0 fe ff 	and	#65534,	r12	;#0xfffe
    638c:	0d 4c       	mov	r12,	r13	;
    638e:	2d 53       	incd	r13		;
    6390:	84 4d ee ff 	mov	r13,	-18(r4)	; 0xffee
    6394:	2f 4c       	mov	@r12,	r15	;
    6396:	b0 12 58 67 	call	#26456		;#0x6758
    639a:	84 4f ea ff 	mov	r15,	-22(r4)	; 0xffea
    639e:	ea 3c       	jmp	$+470    	;abs 0x6574
    63a0:	1c 44 ee ff 	mov	-18(r4),r12	;0xffffffee
    63a4:	1c 53       	inc	r12		;
    63a6:	3c f0 fe ff 	and	#65534,	r12	;#0xfffe
    63aa:	0d 4c       	mov	r12,	r13	;
    63ac:	2d 53       	incd	r13		;
    63ae:	84 4d ee ff 	mov	r13,	-18(r4)	; 0xffee
    63b2:	2f 4c       	mov	@r12,	r15	;
    63b4:	b0 12 24 67 	call	#26404		;#0x6724
    63b8:	84 4f e8 ff 	mov	r15,	-24(r4)	; 0xffe8
    63bc:	db 3c       	jmp	$+440    	;abs 0x6574
    63be:	1c 44 ee ff 	mov	-18(r4),r12	;0xffffffee
    63c2:	1c 53       	inc	r12		;
    63c4:	3c f0 fe ff 	and	#65534,	r12	;#0xfffe
    63c8:	0d 4c       	mov	r12,	r13	;
    63ca:	2d 53       	incd	r13		;
    63cc:	84 4d ee ff 	mov	r13,	-18(r4)	; 0xffee
    63d0:	2c 4c       	mov	@r12,	r12	;
    63d2:	84 4c f8 ff 	mov	r12,	-8(r4)	; 0xfff8
    63d6:	5e 44 fb ff 	mov.b	-5(r4),	r14	;
    63da:	7e 90 69 00 	cmp.b	#105,	r14	;#0x0069
    63de:	13 20       	jnz	$+40     	;abs 0x6406
    63e0:	00 3c       	jmp	$+2      	;abs 0x63e2
    63e2:	1c 44 f8 ff 	mov	-8(r4),	r12	;
    63e6:	0c 93       	cmp	#0,	r12	;r3 As==00
    63e8:	0e 34       	jge	$+30     	;abs 0x6406
    63ea:	00 3c       	jmp	$+2      	;abs 0x63ec
    63ec:	1c 44 f8 ff 	mov	-8(r4),	r12	;
    63f0:	0d 43       	clr	r13		;
    63f2:	0d 8c       	sub	r12,	r13	;
    63f4:	84 4d f8 ff 	mov	r13,	-8(r4)	; 0xfff8
    63f8:	3f 40 2d 00 	mov	#45,	r15	;#0x002d
    63fc:	b0 12 24 67 	call	#26404		;#0x6724
    6400:	84 4f e6 ff 	mov	r15,	-26(r4)	; 0xffe6
    6404:	00 3c       	jmp	$+2      	;abs 0x6406
    6406:	1e 44 f8 ff 	mov	-8(r4),	r14	;
    640a:	3c 40 14 00 	mov	#20,	r12	;#0x0014
    640e:	3c 50 b4 44 	add	#17588,	r12	;#0x44b4
    6412:	0f 43       	clr	r15		;
    6414:	0d 4c       	mov	r12,	r13	;
    6416:	b0 12 a0 65 	call	#26016		;#0x65a0
    641a:	ac 3c       	jmp	$+346    	;abs 0x6574
    641c:	1c 44 ee ff 	mov	-18(r4),r12	;0xffffffee
    6420:	1c 53       	inc	r12		;
    6422:	3c f0 fe ff 	and	#65534,	r12	;#0xfffe
    6426:	0d 4c       	mov	r12,	r13	;
    6428:	2d 53       	incd	r13		;
    642a:	84 4d ee ff 	mov	r13,	-18(r4)	; 0xffee
    642e:	2c 4c       	mov	@r12,	r12	;
    6430:	1d 44 ee ff 	mov	-18(r4),r13	;0xffffffee
    6434:	0e 4d       	mov	r13,	r14	;
    6436:	2e 53       	incd	r14		;
    6438:	84 4e ee ff 	mov	r14,	-18(r4)	; 0xffee
    643c:	2d 4d       	mov	@r13,	r13	;
    643e:	84 4d f6 ff 	mov	r13,	-10(r4)	; 0xfff6
    6442:	84 4c f4 ff 	mov	r12,	-12(r4)	; 0xfff4
    6446:	5f 44 fb ff 	mov.b	-5(r4),	r15	;
    644a:	7f 90 6c 00 	cmp.b	#108,	r15	;#0x006c
    644e:	19 20       	jnz	$+52     	;abs 0x6482
    6450:	00 3c       	jmp	$+2      	;abs 0x6452
    6452:	1c 44 f6 ff 	mov	-10(r4),r12	;0xfffffff6
    6456:	0c 93       	cmp	#0,	r12	;r3 As==00
    6458:	14 34       	jge	$+42     	;abs 0x6482
    645a:	00 3c       	jmp	$+2      	;abs 0x645c
    645c:	1c 44 f4 ff 	mov	-12(r4),r12	;0xfffffff4
    6460:	1d 44 f6 ff 	mov	-10(r4),r13	;0xfffffff6
    6464:	0e 43       	clr	r14		;
    6466:	0f 4e       	mov	r14,	r15	;
    6468:	0f 8c       	sub	r12,	r15	;
    646a:	0e 7d       	subc	r13,	r14	;
    646c:	84 4e f6 ff 	mov	r14,	-10(r4)	; 0xfff6
    6470:	84 4f f4 ff 	mov	r15,	-12(r4)	; 0xfff4
    6474:	3f 40 2d 00 	mov	#45,	r15	;#0x002d
    6478:	b0 12 24 67 	call	#26404		;#0x6724
    647c:	84 4f e4 ff 	mov	r15,	-28(r4)	; 0xffe4
    6480:	00 3c       	jmp	$+2      	;abs 0x6482
    6482:	1f 44 f6 ff 	mov	-10(r4),r15	;0xfffffff6
    6486:	1e 44 f4 ff 	mov	-12(r4),r14	;0xfffffff4
    648a:	3d 40 b4 44 	mov	#17588,	r13	;#0x44b4
    648e:	b0 12 a0 65 	call	#26016		;#0x65a0
    6492:	70 3c       	jmp	$+226    	;abs 0x6574
    6494:	1c 44 ee ff 	mov	-18(r4),r12	;0xffffffee
    6498:	1c 53       	inc	r12		;
    649a:	3c f0 fe ff 	and	#65534,	r12	;#0xfffe
    649e:	0d 4c       	mov	r12,	r13	;
    64a0:	2d 53       	incd	r13		;
    64a2:	84 4d ee ff 	mov	r13,	-18(r4)	; 0xffee
    64a6:	2c 4c       	mov	@r12,	r12	;
    64a8:	84 4c f8 ff 	mov	r12,	-8(r4)	; 0xfff8
    64ac:	0c 11       	rra	r12		;
    64ae:	0c 11       	rra	r12		;
    64b0:	0c 11       	rra	r12		;
    64b2:	0c 11       	rra	r12		;
    64b4:	0c 11       	rra	r12		;
    64b6:	0c 11       	rra	r12		;
    64b8:	0c 11       	rra	r12		;
    64ba:	0c 11       	rra	r12		;
    64bc:	0c 11       	rra	r12		;
    64be:	0c 11       	rra	r12		;
    64c0:	0c 11       	rra	r12		;
    64c2:	0c 11       	rra	r12		;
    64c4:	84 4c f0 ff 	mov	r12,	-16(r4)	; 0xfff0
    64c8:	0c 93       	cmp	#0,	r12	;r3 As==00
    64ca:	06 20       	jnz	$+14     	;abs 0x64d8
    64cc:	00 3c       	jmp	$+2      	;abs 0x64ce
    64ce:	1c 44 f2 ff 	mov	-14(r4),r12	;0xfffffff2
    64d2:	2c 92       	cmp	#4,	r12	;r2 As==10
    64d4:	06 38       	jl	$+14     	;abs 0x64e2
    64d6:	00 3c       	jmp	$+2      	;abs 0x64d8
    64d8:	1f 44 f0 ff 	mov	-16(r4),r15	;0xfffffff0
    64dc:	b0 12 ec 66 	call	#26348		;#0x66ec
    64e0:	00 3c       	jmp	$+2      	;abs 0x64e2
    64e2:	1c 44 f8 ff 	mov	-8(r4),	r12	;
    64e6:	0c 11       	rra	r12		;
    64e8:	0c 11       	rra	r12		;
    64ea:	0c 11       	rra	r12		;
    64ec:	0c 11       	rra	r12		;
    64ee:	0c 11       	rra	r12		;
    64f0:	0c 11       	rra	r12		;
    64f2:	0c 11       	rra	r12		;
    64f4:	0c 11       	rra	r12		;
    64f6:	84 4c f0 ff 	mov	r12,	-16(r4)	; 0xfff0
    64fa:	0c 93       	cmp	#0,	r12	;r3 As==00
    64fc:	07 20       	jnz	$+16     	;abs 0x650c
    64fe:	00 3c       	jmp	$+2      	;abs 0x6500
    6500:	1c 44 f2 ff 	mov	-14(r4),r12	;0xfffffff2
    6504:	3c 90 03 00 	cmp	#3,	r12	;
    6508:	06 38       	jl	$+14     	;abs 0x6516
    650a:	00 3c       	jmp	$+2      	;abs 0x650c
    650c:	1f 44 f0 ff 	mov	-16(r4),r15	;0xfffffff0
    6510:	b0 12 ec 66 	call	#26348		;#0x66ec
    6514:	00 3c       	jmp	$+2      	;abs 0x6516
    6516:	1c 44 f8 ff 	mov	-8(r4),	r12	;
    651a:	0c 11       	rra	r12		;
    651c:	0c 11       	rra	r12		;
    651e:	0c 11       	rra	r12		;
    6520:	0c 11       	rra	r12		;
    6522:	84 4c f0 ff 	mov	r12,	-16(r4)	; 0xfff0
    6526:	0c 93       	cmp	#0,	r12	;r3 As==00
    6528:	06 20       	jnz	$+14     	;abs 0x6536
    652a:	00 3c       	jmp	$+2      	;abs 0x652c
    652c:	1c 44 f2 ff 	mov	-14(r4),r12	;0xfffffff2
    6530:	2c 93       	cmp	#2,	r12	;r3 As==10
    6532:	06 38       	jl	$+14     	;abs 0x6540
    6534:	00 3c       	jmp	$+2      	;abs 0x6536
    6536:	1f 44 f0 ff 	mov	-16(r4),r15	;0xfffffff0
    653a:	b0 12 ec 66 	call	#26348		;#0x66ec
    653e:	00 3c       	jmp	$+2      	;abs 0x6540
    6540:	1f 44 f8 ff 	mov	-8(r4),	r15	;
    6544:	b0 12 ec 66 	call	#26348		;#0x66ec
    6548:	15 3c       	jmp	$+44     	;abs 0x6574
    654a:	1c 44 fc ff 	mov	-4(r4),	r12	;
    654e:	0d 4c       	mov	r12,	r13	;
    6550:	1d 53       	inc	r13		;
    6552:	84 4d fc ff 	mov	r13,	-4(r4)	; 0xfffc
    6556:	6e 4c       	mov.b	@r12,	r14	;
    6558:	c4 4e fb ff 	mov.b	r14,	-5(r4)	; 0xfffb
    655c:	5c 44 fb ff 	mov.b	-5(r4),	r12	;
    6560:	8c 11       	sxt	r12		;
    6562:	3c 50 d0 ff 	add	#65488,	r12	;#0xffd0
    6566:	84 4c f2 ff 	mov	r12,	-14(r4)	; 0xfff2
    656a:	c9 3e       	jmp	$-620    	;abs 0x62fe
    656c:	84 43 fe ff 	mov	#0,	-2(r4)	;r3 As==00, 0xfffe
    6570:	10 3c       	jmp	$+34     	;abs 0x6592
    6572:	02 3c       	jmp	$+6      	;abs 0x6578
    6574:	0a 3c       	jmp	$+22     	;abs 0x658a
    6576:	00 3c       	jmp	$+2      	;abs 0x6578
    6578:	5c 44 fb ff 	mov.b	-5(r4),	r12	;
    657c:	8c 11       	sxt	r12		;
    657e:	0f 4c       	mov	r12,	r15	;
    6580:	b0 12 24 67 	call	#26404		;#0x6724
    6584:	84 4f e2 ff 	mov	r15,	-30(r4)	; 0xffe2
    6588:	00 3c       	jmp	$+2      	;abs 0x658a
    658a:	a2 3e       	jmp	$-698    	;abs 0x62d0
    658c:	84 43 fe ff 	mov	#0,	-2(r4)	;r3 As==00, 0xfffe
    6590:	00 3c       	jmp	$+2      	;abs 0x6592
    6592:	1f 44 fe ff 	mov	-2(r4),	r15	;
    6596:	31 50 20 00 	add	#32,	r1	;#0x0020
    659a:	34 41       	pop	r4		;
    659c:	30 41       	ret			
	...

000065a0 <xtoa>:
    65a0:	04 12       	push	r4		;
    65a2:	04 41       	mov	r1,	r4	;
    65a4:	0b 12       	push	r11		;
    65a6:	0a 12       	push	r10		;
    65a8:	09 12       	push	r9		;
    65aa:	31 80 22 00 	sub	#34,	r1	;#0x0022
    65ae:	0c 4f       	mov	r15,	r12	;
    65b0:	0b 4e       	mov	r14,	r11	;
    65b2:	0a 4d       	mov	r13,	r10	;
    65b4:	84 4f f6 ff 	mov	r15,	-10(r4)	; 0xfff6
    65b8:	84 4e f4 ff 	mov	r14,	-12(r4)	; 0xfff4
    65bc:	84 4d f2 ff 	mov	r13,	-14(r4)	; 0xfff2
    65c0:	1d 44 f6 ff 	mov	-10(r4),r13	;0xfffffff6
    65c4:	1e 44 f4 ff 	mov	-12(r4),r14	;0xfffffff4
    65c8:	0e dd       	bis	r13,	r14	;
    65ca:	0e 93       	cmp	#0,	r14	;r3 As==00
    65cc:	84 4c ea ff 	mov	r12,	-22(r4)	; 0xffea
    65d0:	84 4a e8 ff 	mov	r10,	-24(r4)	; 0xffe8
    65d4:	84 4b e6 ff 	mov	r11,	-26(r4)	; 0xffe6
    65d8:	7a 24       	jz	$+246    	;abs 0x66ce
    65da:	00 3c       	jmp	$+2      	;abs 0x65dc
    65dc:	00 3c       	jmp	$+2      	;abs 0x65de
    65de:	1c 44 f4 ff 	mov	-12(r4),r12	;0xfffffff4
    65e2:	1d 44 f6 ff 	mov	-10(r4),r13	;0xfffffff6
    65e6:	1e 44 f2 ff 	mov	-14(r4),r14	;0xfffffff2
    65ea:	2f 4e       	mov	@r14,	r15	;
    65ec:	1e 4e 02 00 	mov	2(r14),	r14	;
    65f0:	0d 9e       	cmp	r14,	r13	;
    65f2:	0b 42       	mov	r2,	r11	;
    65f4:	1b f3       	and	#1,	r11	;r3 As==01
    65f6:	0c 9f       	cmp	r15,	r12	;
    65f8:	0c 42       	mov	r2,	r12	;
    65fa:	1c f3       	and	#1,	r12	;r3 As==01
    65fc:	0d 9e       	cmp	r14,	r13	;
    65fe:	84 4b e4 ff 	mov	r11,	-28(r4)	; 0xffe4
    6602:	84 4c e2 ff 	mov	r12,	-30(r4)	; 0xffe2
    6606:	04 24       	jz	$+10     	;abs 0x6610
    6608:	1c 44 e4 ff 	mov	-28(r4),r12	;0xffffffe4
    660c:	84 4c e2 ff 	mov	r12,	-30(r4)	; 0xffe2
    6610:	1c 44 e2 ff 	mov	-30(r4),r12	;0xffffffe2
    6614:	1c b3       	bit	#1,	r12	;r3 As==01
    6616:	07 20       	jnz	$+16     	;abs 0x6626
    6618:	00 3c       	jmp	$+2      	;abs 0x661a
    661a:	1c 44 f2 ff 	mov	-14(r4),r12	;0xfffffff2
    661e:	2c 52       	add	#4,	r12	;r2 As==10
    6620:	84 4c f2 ff 	mov	r12,	-14(r4)	; 0xfff2
    6624:	dc 3f       	jmp	$-70     	;abs 0x65de
    6626:	00 3c       	jmp	$+2      	;abs 0x6628
    6628:	1c 44 f2 ff 	mov	-14(r4),r12	;0xfffffff2
    662c:	0d 4c       	mov	r12,	r13	;
    662e:	2d 52       	add	#4,	r13	;r2 As==10
    6630:	84 4d f2 ff 	mov	r13,	-14(r4)	; 0xfff2
    6634:	2d 4c       	mov	@r12,	r13	;
    6636:	1c 4c 02 00 	mov	2(r12),	r12	;
    663a:	84 4c ee ff 	mov	r12,	-18(r4)	; 0xffee
    663e:	84 4d ec ff 	mov	r13,	-20(r4)	; 0xffec
    6642:	f4 40 30 00 	mov.b	#48,	-15(r4)	;#0x0030, 0xfff1
    6646:	f1 ff 
    6648:	00 3c       	jmp	$+2      	;abs 0x664a
    664a:	1c 44 f4 ff 	mov	-12(r4),r12	;0xfffffff4
    664e:	1d 44 f6 ff 	mov	-10(r4),r13	;0xfffffff6
    6652:	1e 44 ec ff 	mov	-20(r4),r14	;0xffffffec
    6656:	1f 44 ee ff 	mov	-18(r4),r15	;0xffffffee
    665a:	0d 9f       	cmp	r15,	r13	;
    665c:	0b 42       	mov	r2,	r11	;
    665e:	1a 43       	mov	#1,	r10	;r3 As==01
    6660:	09 4a       	mov	r10,	r9	;
    6662:	09 cb       	bic	r11,	r9	;
    6664:	0c 9e       	cmp	r14,	r12	;
    6666:	0c 42       	mov	r2,	r12	;
    6668:	0a cc       	bic	r12,	r10	;
    666a:	0d 9f       	cmp	r15,	r13	;
    666c:	84 49 e0 ff 	mov	r9,	-32(r4)	; 0xffe0
    6670:	84 4a de ff 	mov	r10,	-34(r4)	; 0xffde
    6674:	04 24       	jz	$+10     	;abs 0x667e
    6676:	1c 44 e0 ff 	mov	-32(r4),r12	;0xffffffe0
    667a:	84 4c de ff 	mov	r12,	-34(r4)	; 0xffde
    667e:	1c 44 de ff 	mov	-34(r4),r12	;0xffffffde
    6682:	1c b3       	bit	#1,	r12	;r3 As==01
    6684:	15 20       	jnz	$+44     	;abs 0x66b0
    6686:	00 3c       	jmp	$+2      	;abs 0x6688
    6688:	5c 44 f1 ff 	mov.b	-15(r4),r12	;0xfffffff1
    668c:	5c 53       	inc.b	r12		;
    668e:	c4 4c f1 ff 	mov.b	r12,	-15(r4)	; 0xfff1
    6692:	1d 44 ec ff 	mov	-20(r4),r13	;0xffffffec
    6696:	1e 44 ee ff 	mov	-18(r4),r14	;0xffffffee
    669a:	1f 44 f4 ff 	mov	-12(r4),r15	;0xfffffff4
    669e:	1b 44 f6 ff 	mov	-10(r4),r11	;0xfffffff6
    66a2:	0f 8d       	sub	r13,	r15	;
    66a4:	0b 7e       	subc	r14,	r11	;
    66a6:	84 4b f6 ff 	mov	r11,	-10(r4)	; 0xfff6
    66aa:	84 4f f4 ff 	mov	r15,	-12(r4)	; 0xfff4
    66ae:	cd 3f       	jmp	$-100    	;abs 0x664a
    66b0:	5c 44 f1 ff 	mov.b	-15(r4),r12	;0xfffffff1
    66b4:	8c 11       	sxt	r12		;
    66b6:	0f 4c       	mov	r12,	r15	;
    66b8:	b0 12 24 67 	call	#26404		;#0x6724
    66bc:	84 4f dc ff 	mov	r15,	-36(r4)	; 0xffdc
    66c0:	00 3c       	jmp	$+2      	;abs 0x66c2
    66c2:	5c 44 ec ff 	mov.b	-20(r4),r12	;0xffffffec
    66c6:	5c b3       	bit.b	#1,	r12	;r3 As==01
    66c8:	af 27       	jz	$-160    	;abs 0x6628
    66ca:	00 3c       	jmp	$+2      	;abs 0x66cc
    66cc:	07 3c       	jmp	$+16     	;abs 0x66dc
    66ce:	3f 40 30 00 	mov	#48,	r15	;#0x0030
    66d2:	b0 12 24 67 	call	#26404		;#0x6724
    66d6:	84 4f da ff 	mov	r15,	-38(r4)	; 0xffda
    66da:	00 3c       	jmp	$+2      	;abs 0x66dc
    66dc:	31 50 22 00 	add	#34,	r1	;#0x0022
    66e0:	39 41       	pop	r9		;
    66e2:	3a 41       	pop	r10		;
    66e4:	3b 41       	pop	r11		;
    66e6:	34 41       	pop	r4		;
    66e8:	30 41       	ret			
	...

000066ec <puth>:
    66ec:	04 12       	push	r4		;
    66ee:	04 41       	mov	r1,	r4	;
    66f0:	31 80 06 00 	sub	#6,	r1	;
    66f4:	0c 4f       	mov	r15,	r12	;
    66f6:	84 4f fe ff 	mov	r15,	-2(r4)	; 0xfffe
    66fa:	3f f0 0f 00 	and	#15,	r15	;#0x000f
    66fe:	5f 4f dc 44 	mov.b	17628(r15),r15	;0x044dc
    6702:	8f 11       	sxt	r15		;
    6704:	84 4c fc ff 	mov	r12,	-4(r4)	; 0xfffc
    6708:	b0 12 24 67 	call	#26404		;#0x6724
    670c:	84 4f fa ff 	mov	r15,	-6(r4)	; 0xfffa
    6710:	31 50 06 00 	add	#6,	r1	;
    6714:	34 41       	pop	r4		;
    6716:	30 41       	ret			

00006718 <mspconsole_init>:
    6718:	04 12       	push	r4		;
    671a:	04 41       	mov	r1,	r4	;
    671c:	b0 12 f6 6b 	call	#27638		;#0x6bf6
    6720:	34 41       	pop	r4		;
    6722:	30 41       	ret			

00006724 <io_putchar>:
    6724:	04 12       	push	r4		;
    6726:	04 41       	mov	r1,	r4	;
    6728:	31 80 06 00 	sub	#6,	r1	;
    672c:	0c 4f       	mov	r15,	r12	;
    672e:	84 4f fe ff 	mov	r15,	-2(r4)	; 0xfffe
    6732:	5d 44 fe ff 	mov.b	-2(r4),	r13	;
    6736:	c4 4d fd ff 	mov.b	r13,	-3(r4)	; 0xfffd
    673a:	0f 44       	mov	r4,	r15	;
    673c:	3f 80 03 00 	sub	#3,	r15	;
    6740:	1e 43       	mov	#1,	r14	;r3 As==01
    6742:	84 4c fa ff 	mov	r12,	-6(r4)	; 0xfffa
    6746:	b0 12 82 6c 	call	#27778		;#0x6c82
    674a:	1f 44 fe ff 	mov	-2(r4),	r15	;
    674e:	31 50 06 00 	add	#6,	r1	;
    6752:	34 41       	pop	r4		;
    6754:	30 41       	ret			
	...

00006758 <io_puts_no_newline>:
    6758:	04 12       	push	r4		;
    675a:	04 41       	mov	r1,	r4	;
    675c:	31 82       	sub	#8,	r1	;r2 As==11
    675e:	0c 4f       	mov	r15,	r12	;
    6760:	84 4f fe ff 	mov	r15,	-2(r4)	; 0xfffe
    6764:	84 43 fc ff 	mov	#0,	-4(r4)	;r3 As==00, 0xfffc
    6768:	1f 44 fe ff 	mov	-2(r4),	r15	;
    676c:	84 4f fa ff 	mov	r15,	-6(r4)	; 0xfffa
    6770:	84 4c f8 ff 	mov	r12,	-8(r4)	; 0xfff8
    6774:	00 3c       	jmp	$+2      	;abs 0x6776
    6776:	1c 44 fa ff 	mov	-6(r4),	r12	;
    677a:	0d 4c       	mov	r12,	r13	;
    677c:	1d 53       	inc	r13		;
    677e:	84 4d fa ff 	mov	r13,	-6(r4)	; 0xfffa
    6782:	6e 4c       	mov.b	@r12,	r14	;
    6784:	4e 93       	cmp.b	#0,	r14	;r3 As==00
    6786:	07 24       	jz	$+16     	;abs 0x6796
    6788:	00 3c       	jmp	$+2      	;abs 0x678a
    678a:	1c 44 fc ff 	mov	-4(r4),	r12	;
    678e:	1c 53       	inc	r12		;
    6790:	84 4c fc ff 	mov	r12,	-4(r4)	; 0xfffc
    6794:	f0 3f       	jmp	$-30     	;abs 0x6776
    6796:	1f 44 fe ff 	mov	-2(r4),	r15	;
    679a:	1e 44 fc ff 	mov	-4(r4),	r14	;
    679e:	b0 12 82 6c 	call	#27778		;#0x6c82
    67a2:	1f 44 fc ff 	mov	-4(r4),	r15	;
    67a6:	31 52       	add	#8,	r1	;r2 As==11
    67a8:	34 41       	pop	r4		;
    67aa:	30 41       	ret			

000067ac <io_puts>:
    67ac:	04 12       	push	r4		;
    67ae:	04 41       	mov	r1,	r4	;
    67b0:	31 82       	sub	#8,	r1	;r2 As==11
    67b2:	0c 4f       	mov	r15,	r12	;
    67b4:	84 4f fe ff 	mov	r15,	-2(r4)	; 0xfffe
    67b8:	84 4c fa ff 	mov	r12,	-6(r4)	; 0xfffa
    67bc:	b0 12 58 67 	call	#26456		;#0x6758
    67c0:	84 4f fc ff 	mov	r15,	-4(r4)	; 0xfffc
    67c4:	3f 40 0a 00 	mov	#10,	r15	;#0x000a
    67c8:	b0 12 24 67 	call	#26404		;#0x6724
    67cc:	1c 44 fc ff 	mov	-4(r4),	r12	;
    67d0:	84 4f f8 ff 	mov	r15,	-8(r4)	; 0xfff8
    67d4:	0f 4c       	mov	r12,	r15	;
    67d6:	31 52       	add	#8,	r1	;r2 As==11
    67d8:	34 41       	pop	r4		;
    67da:	30 41       	ret			

000067dc <task_prologue>:
    67dc:	04 12       	push	r4		;
    67de:	04 41       	mov	r1,	r4	;
    67e0:	31 80 06 00 	sub	#6,	r1	;
    67e4:	1c 42 e0 54 	mov	&0x54e0,r12	;0x54e0
    67e8:	1c 4c 04 00 	mov	4(r12),	r12	;
    67ec:	2c 4c       	mov	@r12,	r12	;
    67ee:	84 4c fe ff 	mov	r12,	-2(r4)	; 0xfffe
    67f2:	1c 42 e0 54 	mov	&0x54e0,r12	;0x54e0
    67f6:	1c 4c 02 00 	mov	2(r12),	r12	;
    67fa:	1d 44 fe ff 	mov	-2(r4),	r13	;
    67fe:	1d 4d 08 00 	mov	8(r13),	r13	;
    6802:	0c 9d       	cmp	r13,	r12	;
    6804:	3a 24       	jz	$+118    	;abs 0x687a
    6806:	00 3c       	jmp	$+2      	;abs 0x6808
    6808:	00 3c       	jmp	$+2      	;abs 0x680a
    680a:	1c 42 c2 54 	mov	&0x54c2,r12	;0x54c2
    680e:	1d 42 c4 54 	mov	&0x54c4,r13	;0x54c4
    6812:	0c 9d       	cmp	r13,	r12	;
    6814:	25 2c       	jc	$+76     	;abs 0x6860
    6816:	00 3c       	jmp	$+2      	;abs 0x6818
    6818:	1c 42 c2 54 	mov	&0x54c2,r12	;0x54c2
    681c:	0c 5c       	rla	r12		;
    681e:	1c 4c e4 54 	mov	21732(r12),r12	;0x054e4
    6822:	84 4c fc ff 	mov	r12,	-4(r4)	; 0xfffc
    6826:	0c 93       	cmp	#0,	r12	;r3 As==00
    6828:	15 24       	jz	$+44     	;abs 0x6854
    682a:	00 3c       	jmp	$+2      	;abs 0x682c
    682c:	1c 42 c2 54 	mov	&0x54c2,r12	;0x54c2
    6830:	0c 5c       	rla	r12		;
    6832:	1c 4c 26 55 	mov	21798(r12),r12	;0x05526
    6836:	84 4c fa ff 	mov	r12,	-6(r4)	; 0xfffa
    683a:	1f 44 fc ff 	mov	-4(r4),	r15	;
    683e:	1c 42 c2 54 	mov	&0x54c2,r12	;0x54c2
    6842:	0c 5c       	rla	r12		;
    6844:	3c 50 68 55 	add	#21864,	r12	;#0x5568
    6848:	1d 44 fa ff 	mov	-6(r4),	r13	;
    684c:	0e 4c       	mov	r12,	r14	;
    684e:	b0 12 24 62 	call	#25124		;#0x6224
    6852:	00 3c       	jmp	$+2      	;abs 0x6854
    6854:	1c 42 c2 54 	mov	&0x54c2,r12	;0x54c2
    6858:	1c 53       	inc	r12		;
    685a:	82 4c c2 54 	mov	r12,	&0x54c2	;
    685e:	d5 3f       	jmp	$-84     	;abs 0x680a
    6860:	82 43 c4 54 	mov	#0,	&0x54c4	;r3 As==00
    6864:	82 43 c2 54 	mov	#0,	&0x54c2	;r3 As==00
    6868:	1c 42 e0 54 	mov	&0x54e0,r12	;0x54e0
    686c:	1c 4c 02 00 	mov	2(r12),	r12	;
    6870:	1d 44 fe ff 	mov	-2(r4),	r13	;
    6874:	8d 4c 08 00 	mov	r12,	8(r13)	;
    6878:	03 3c       	jmp	$+8      	;abs 0x6880
    687a:	82 43 c4 54 	mov	#0,	&0x54c4	;r3 As==00
    687e:	00 3c       	jmp	$+2      	;abs 0x6880
    6880:	31 50 06 00 	add	#6,	r1	;
    6884:	34 41       	pop	r4		;
    6886:	30 41       	ret			

00006888 <transition_to>:
    6888:	04 12       	push	r4		;
    688a:	04 41       	mov	r1,	r4	;
    688c:	31 80 0a 00 	sub	#10,	r1	;#0x000a
    6890:	0c 4f       	mov	r15,	r12	;
    6892:	84 4f fe ff 	mov	r15,	-2(r4)	; 0xfffe
    6896:	1f 42 e0 54 	mov	&0x54e0,r15	;0x54e0
    689a:	3d 40 da 54 	mov	#21722,	r13	;#0x54da
    689e:	3e 40 ce 54 	mov	#21710,	r14	;#0x54ce
    68a2:	0f 9d       	cmp	r13,	r15	;
    68a4:	84 4c fa ff 	mov	r12,	-6(r4)	; 0xfffa
    68a8:	84 4d f8 ff 	mov	r13,	-8(r4)	; 0xfff8
    68ac:	84 4e f6 ff 	mov	r14,	-10(r4)	; 0xfff6
    68b0:	04 24       	jz	$+10     	;abs 0x68ba
    68b2:	1c 44 f8 ff 	mov	-8(r4),	r12	;
    68b6:	84 4c f6 ff 	mov	r12,	-10(r4)	; 0xfff6
    68ba:	1c 44 f6 ff 	mov	-10(r4),r12	;0xfffffff6
    68be:	84 4c fc ff 	mov	r12,	-4(r4)	; 0xfffc
    68c2:	1d 44 fe ff 	mov	-2(r4),	r13	;
    68c6:	8c 4d 00 00 	mov	r13,	0(r12)	;
    68ca:	1c 42 e0 54 	mov	&0x54e0,r12	;0x54e0
    68ce:	1c 4c 02 00 	mov	2(r12),	r12	;
    68d2:	1c 53       	inc	r12		;
    68d4:	1d 44 fc ff 	mov	-4(r4),	r13	;
    68d8:	8d 4c 02 00 	mov	r12,	2(r13)	;
    68dc:	1c 42 e0 54 	mov	&0x54e0,r12	;0x54e0
    68e0:	1c 4c 02 00 	mov	2(r12),	r12	;
    68e4:	1d 44 fc ff 	mov	-4(r4),	r13	;
    68e8:	1d 4d 04 00 	mov	4(r13),	r13	;
    68ec:	8d 4c 02 00 	mov	r12,	2(r13)	;
    68f0:	1c 42 e0 54 	mov	&0x54e0,r12	;0x54e0
    68f4:	2c 4c       	mov	@r12,	r12	;
    68f6:	1d 44 fc ff 	mov	-4(r4),	r13	;
    68fa:	1d 4d 04 00 	mov	4(r13),	r13	;
    68fe:	8d 4c 00 00 	mov	r12,	0(r13)	;
    6902:	1c 44 fc ff 	mov	-4(r4),	r12	;
    6906:	82 4c e0 54 	mov	r12,	&0x54e0	;
    690a:	b0 12 dc 67 	call	#26588		;#0x67dc
    690e:	1c 44 fe ff 	mov	-2(r4),	r12	;
    6912:	2c 4c       	mov	@r12,	r12	;
    6914:	31 40 00 24 	mov	#9216,	r1	;#0x2400
    6918:	00 4c       	br	r12		;
    691a:	31 50 0a 00 	add	#10,	r1	;#0x000a
    691e:	34 41       	pop	r4		;
    6920:	30 41       	ret			
	...

00006924 <chan_in>:
    6924:	04 12       	push	r4		;
    6926:	04 41       	mov	r1,	r4	;
    6928:	0b 12       	push	r11		;
    692a:	0a 12       	push	r10		;
    692c:	31 80 18 00 	sub	#24,	r1	;#0x0018
    6930:	0c 4d       	mov	r13,	r12	;
    6932:	0b 4e       	mov	r14,	r11	;
    6934:	0a 4f       	mov	r15,	r10	;
    6936:	84 4f fa ff 	mov	r15,	-6(r4)	; 0xfffa
    693a:	84 4e f8 ff 	mov	r14,	-8(r4)	; 0xfff8
    693e:	84 4d f6 ff 	mov	r13,	-10(r4)	; 0xfff6
    6942:	84 43 f2 ff 	mov	#0,	-14(r4)	;r3 As==00, 0xfff2
    6946:	1d 44 f8 ff 	mov	-8(r4),	r13	;
    694a:	2d 53       	incd	r13		;
    694c:	84 4d ee ff 	mov	r13,	-18(r4)	; 0xffee
    6950:	1d 44 f8 ff 	mov	-8(r4),	r13	;
    6954:	84 4d ec ff 	mov	r13,	-20(r4)	; 0xffec
    6958:	1d 44 ee ff 	mov	-18(r4),r13	;0xffffffee
    695c:	1e 44 f6 ff 	mov	-10(r4),r14	;0xfffffff6
    6960:	0d 5e       	add	r14,	r13	;
    6962:	84 4d ea ff 	mov	r13,	-22(r4)	; 0xffea
    6966:	84 4d f0 ff 	mov	r13,	-16(r4)	; 0xfff0
    696a:	0f 4d       	mov	r13,	r15	;
    696c:	84 4c e8 ff 	mov	r12,	-24(r4)	; 0xffe8
    6970:	84 4b e6 ff 	mov	r11,	-26(r4)	; 0xffe6
    6974:	84 4a e4 ff 	mov	r10,	-28(r4)	; 0xffe4
    6978:	31 50 18 00 	add	#24,	r1	;#0x0018
    697c:	3a 41       	pop	r10		;
    697e:	3b 41       	pop	r11		;
    6980:	34 41       	pop	r4		;
    6982:	30 41       	ret			

00006984 <chan_out>:
    6984:	04 12       	push	r4		;
    6986:	04 41       	mov	r1,	r4	;
    6988:	31 80 14 00 	sub	#20,	r1	;#0x0014
    698c:	1c 44 0a 00 	mov	10(r4),	r12	;0x0000a
    6990:	1d 44 08 00 	mov	8(r4),	r13	;
    6994:	1e 44 06 00 	mov	6(r4),	r14	;
    6998:	1f 44 04 00 	mov	4(r4),	r15	;
    699c:	84 4f fe ff 	mov	r15,	-2(r4)	; 0xfffe
    69a0:	84 4e fc ff 	mov	r14,	-4(r4)	; 0xfffc
    69a4:	84 4d fa ff 	mov	r13,	-6(r4)	; 0xfffa
    69a8:	84 4c f8 ff 	mov	r12,	-8(r4)	; 0xfff8
    69ac:	1c 44 fa ff 	mov	-6(r4),	r12	;
    69b0:	2c 53       	incd	r12		;
    69b2:	84 4c f0 ff 	mov	r12,	-16(r4)	; 0xfff0
    69b6:	1c 44 fa ff 	mov	-6(r4),	r12	;
    69ba:	84 4c ee ff 	mov	r12,	-18(r4)	; 0xffee
    69be:	1c 44 f0 ff 	mov	-16(r4),r12	;0xfffffff0
    69c2:	1d 44 f8 ff 	mov	-8(r4),	r13	;
    69c6:	0c 5d       	add	r13,	r12	;
    69c8:	84 4c ec ff 	mov	r12,	-20(r4)	; 0xffec
    69cc:	84 4c f2 ff 	mov	r12,	-14(r4)	; 0xfff2
    69d0:	1e 44 fe ff 	mov	-2(r4),	r14	;
    69d4:	1d 44 fc ff 	mov	-4(r4),	r13	;
    69d8:	0f 4c       	mov	r12,	r15	;
    69da:	b0 12 24 62 	call	#25124		;#0x6224
    69de:	31 50 14 00 	add	#20,	r1	;#0x0014
    69e2:	34 41       	pop	r4		;
    69e4:	30 41       	ret			
	...

000069e8 <write_to_gbuf>:
    69e8:	04 12       	push	r4		;
    69ea:	04 41       	mov	r1,	r4	;
    69ec:	0b 12       	push	r11		;
    69ee:	0a 12       	push	r10		;
    69f0:	31 80 12 00 	sub	#18,	r1	;#0x0012
    69f4:	0c 4d       	mov	r13,	r12	;
    69f6:	0b 4e       	mov	r14,	r11	;
    69f8:	0a 4f       	mov	r15,	r10	;
    69fa:	84 4f fa ff 	mov	r15,	-6(r4)	; 0xfffa
    69fe:	84 4e f8 ff 	mov	r14,	-8(r4)	; 0xfff8
    6a02:	84 4d f6 ff 	mov	r13,	-10(r4)	; 0xfff6
    6a06:	1d 42 c4 54 	mov	&0x54c4,r13	;0x54c4
    6a0a:	0d 5d       	rla	r13		;
    6a0c:	3d 50 68 55 	add	#21864,	r13	;#0x5568
    6a10:	1e 44 fa ff 	mov	-6(r4),	r14	;
    6a14:	1f 44 f6 ff 	mov	-10(r4),r15	;0xfffffff6
    6a18:	84 4f f0 ff 	mov	r15,	-16(r4)	; 0xfff0
    6a1c:	0f 4d       	mov	r13,	r15	;
    6a1e:	1d 44 f0 ff 	mov	-16(r4),r13	;0xfffffff0
    6a22:	84 4c ee ff 	mov	r12,	-18(r4)	; 0xffee
    6a26:	84 4b ec ff 	mov	r11,	-20(r4)	; 0xffec
    6a2a:	84 4a ea ff 	mov	r10,	-22(r4)	; 0xffea
    6a2e:	b0 12 24 62 	call	#25124		;#0x6224
    6a32:	1c 44 f6 ff 	mov	-10(r4),r12	;0xfffffff6
    6a36:	1d 42 c4 54 	mov	&0x54c4,r13	;0x54c4
    6a3a:	0d 5d       	rla	r13		;
    6a3c:	8d 4c 26 55 	mov	r12,	21798(r13); 0x5526
    6a40:	1c 44 f8 ff 	mov	-8(r4),	r12	;
    6a44:	1d 42 c4 54 	mov	&0x54c4,r13	;0x54c4
    6a48:	0d 5d       	rla	r13		;
    6a4a:	8d 4c e4 54 	mov	r12,	21732(r13); 0x54e4
    6a4e:	1c 44 f6 ff 	mov	-10(r4),r12	;0xfffffff6
    6a52:	3c 90 03 00 	cmp	#3,	r12	;
    6a56:	2a 28       	jnc	$+86     	;abs 0x6aac
    6a58:	00 3c       	jmp	$+2      	;abs 0x6a5a
    6a5a:	1c 44 f6 ff 	mov	-10(r4),r12	;0xfffffff6
    6a5e:	3c 53       	add	#-1,	r12	;r3 As==11
    6a60:	12 c3       	clrc			
    6a62:	0c 10       	rrc	r12		;
    6a64:	1c 53       	inc	r12		;
    6a66:	84 4c f4 ff 	mov	r12,	-12(r4)	; 0xfff4
    6a6a:	94 43 f2 ff 	mov	#1,	-14(r4)	;r3 As==01, 0xfff2
    6a6e:	00 3c       	jmp	$+2      	;abs 0x6a70
    6a70:	1c 44 f2 ff 	mov	-14(r4),r12	;0xfffffff2
    6a74:	1d 44 f4 ff 	mov	-12(r4),r13	;0xfffffff4
    6a78:	0c 9d       	cmp	r13,	r12	;
    6a7a:	10 2c       	jc	$+34     	;abs 0x6a9c
    6a7c:	00 3c       	jmp	$+2      	;abs 0x6a7e
    6a7e:	1c 42 c4 54 	mov	&0x54c4,r12	;0x54c4
    6a82:	1d 44 f2 ff 	mov	-14(r4),r13	;0xfffffff2
    6a86:	0c 5d       	add	r13,	r12	;
    6a88:	0c 5c       	rla	r12		;
    6a8a:	8c 43 e4 54 	mov	#0,	21732(r12);r3 As==00, 0x54e4
    6a8e:	00 3c       	jmp	$+2      	;abs 0x6a90
    6a90:	1c 44 f2 ff 	mov	-14(r4),r12	;0xfffffff2
    6a94:	1c 53       	inc	r12		;
    6a96:	84 4c f2 ff 	mov	r12,	-14(r4)	; 0xfff2
    6a9a:	ea 3f       	jmp	$-42     	;abs 0x6a70
    6a9c:	1c 44 f4 ff 	mov	-12(r4),r12	;0xfffffff4
    6aa0:	1d 42 c4 54 	mov	&0x54c4,r13	;0x54c4
    6aa4:	0d 5c       	add	r12,	r13	;
    6aa6:	82 4d c4 54 	mov	r13,	&0x54c4	;
    6aaa:	06 3c       	jmp	$+14     	;abs 0x6ab8
    6aac:	1c 42 c4 54 	mov	&0x54c4,r12	;0x54c4
    6ab0:	1c 53       	inc	r12		;
    6ab2:	82 4c c4 54 	mov	r12,	&0x54c4	;
    6ab6:	00 3c       	jmp	$+2      	;abs 0x6ab8
    6ab8:	31 50 12 00 	add	#18,	r1	;#0x0012
    6abc:	3a 41       	pop	r10		;
    6abe:	3b 41       	pop	r11		;
    6ac0:	34 41       	pop	r4		;
    6ac2:	30 41       	ret			

00006ac4 <chan_out_gbuf>:
    6ac4:	04 12       	push	r4		;
    6ac6:	04 41       	mov	r1,	r4	;
    6ac8:	31 80 18 00 	sub	#24,	r1	;#0x0018
    6acc:	1c 44 0a 00 	mov	10(r4),	r12	;0x0000a
    6ad0:	1d 44 08 00 	mov	8(r4),	r13	;
    6ad4:	1e 44 06 00 	mov	6(r4),	r14	;
    6ad8:	1f 44 04 00 	mov	4(r4),	r15	;
    6adc:	84 4f fe ff 	mov	r15,	-2(r4)	; 0xfffe
    6ae0:	84 4e fc ff 	mov	r14,	-4(r4)	; 0xfffc
    6ae4:	84 4d fa ff 	mov	r13,	-6(r4)	; 0xfffa
    6ae8:	84 4c f8 ff 	mov	r12,	-8(r4)	; 0xfff8
    6aec:	1c 44 fa ff 	mov	-6(r4),	r12	;
    6af0:	2c 53       	incd	r12		;
    6af2:	84 4c f0 ff 	mov	r12,	-16(r4)	; 0xfff0
    6af6:	1c 44 fa ff 	mov	-6(r4),	r12	;
    6afa:	84 4c ee ff 	mov	r12,	-18(r4)	; 0xffee
    6afe:	1c 44 f0 ff 	mov	-16(r4),r12	;0xfffffff0
    6b02:	1d 44 f8 ff 	mov	-8(r4),	r13	;
    6b06:	0c 5d       	add	r13,	r12	;
    6b08:	84 4c ec ff 	mov	r12,	-20(r4)	; 0xffec
    6b0c:	1c 42 c4 54 	mov	&0x54c4,r12	;0x54c4
    6b10:	0c 5c       	rla	r12		;
    6b12:	3c 50 68 55 	add	#21864,	r12	;#0x5568
    6b16:	1e 44 fe ff 	mov	-2(r4),	r14	;
    6b1a:	1d 44 fc ff 	mov	-4(r4),	r13	;
    6b1e:	0f 4c       	mov	r12,	r15	;
    6b20:	b0 12 24 62 	call	#25124		;#0x6224
    6b24:	1c 44 fc ff 	mov	-4(r4),	r12	;
    6b28:	1d 42 c4 54 	mov	&0x54c4,r13	;0x54c4
    6b2c:	0d 5d       	rla	r13		;
    6b2e:	8d 4c 26 55 	mov	r12,	21798(r13); 0x5526
    6b32:	1c 44 ec ff 	mov	-20(r4),r12	;0xffffffec
    6b36:	84 4c f2 ff 	mov	r12,	-14(r4)	; 0xfff2
    6b3a:	1d 42 c4 54 	mov	&0x54c4,r13	;0x54c4
    6b3e:	0d 5d       	rla	r13		;
    6b40:	8d 4c e4 54 	mov	r12,	21732(r13); 0x54e4
    6b44:	1c 44 fc ff 	mov	-4(r4),	r12	;
    6b48:	3c 90 03 00 	cmp	#3,	r12	;
    6b4c:	2a 28       	jnc	$+86     	;abs 0x6ba2
    6b4e:	00 3c       	jmp	$+2      	;abs 0x6b50
    6b50:	1c 44 fc ff 	mov	-4(r4),	r12	;
    6b54:	3c 53       	add	#-1,	r12	;r3 As==11
    6b56:	12 c3       	clrc			
    6b58:	0c 10       	rrc	r12		;
    6b5a:	1c 53       	inc	r12		;
    6b5c:	84 4c ea ff 	mov	r12,	-22(r4)	; 0xffea
    6b60:	94 43 e8 ff 	mov	#1,	-24(r4)	;r3 As==01, 0xffe8
    6b64:	00 3c       	jmp	$+2      	;abs 0x6b66
    6b66:	1c 44 e8 ff 	mov	-24(r4),r12	;0xffffffe8
    6b6a:	1d 44 ea ff 	mov	-22(r4),r13	;0xffffffea
    6b6e:	0c 9d       	cmp	r13,	r12	;
    6b70:	10 2c       	jc	$+34     	;abs 0x6b92
    6b72:	00 3c       	jmp	$+2      	;abs 0x6b74
    6b74:	1c 42 c4 54 	mov	&0x54c4,r12	;0x54c4
    6b78:	1d 44 e8 ff 	mov	-24(r4),r13	;0xffffffe8
    6b7c:	0c 5d       	add	r13,	r12	;
    6b7e:	0c 5c       	rla	r12		;
    6b80:	8c 43 e4 54 	mov	#0,	21732(r12);r3 As==00, 0x54e4
    6b84:	00 3c       	jmp	$+2      	;abs 0x6b86
    6b86:	1c 44 e8 ff 	mov	-24(r4),r12	;0xffffffe8
    6b8a:	1c 53       	inc	r12		;
    6b8c:	84 4c e8 ff 	mov	r12,	-24(r4)	; 0xffe8
    6b90:	ea 3f       	jmp	$-42     	;abs 0x6b66
    6b92:	1c 44 ea ff 	mov	-22(r4),r12	;0xffffffea
    6b96:	1d 42 c4 54 	mov	&0x54c4,r13	;0x54c4
    6b9a:	0d 5c       	add	r12,	r13	;
    6b9c:	82 4d c4 54 	mov	r13,	&0x54c4	;
    6ba0:	06 3c       	jmp	$+14     	;abs 0x6bae
    6ba2:	1c 42 c4 54 	mov	&0x54c4,r12	;0x54c4
    6ba6:	1c 53       	inc	r12		;
    6ba8:	82 4c c4 54 	mov	r12,	&0x54c4	;
    6bac:	00 3c       	jmp	$+2      	;abs 0x6bae
    6bae:	31 50 18 00 	add	#24,	r1	;#0x0018
    6bb2:	34 41       	pop	r4		;
    6bb4:	30 41       	ret			
	...

00006bb8 <main>:
    6bb8:	04 12       	push	r4		;
    6bba:	04 41       	mov	r1,	r4	;
    6bbc:	21 83       	decd	r1		;
    6bbe:	84 43 fe ff 	mov	#0,	-2(r4)	;r3 As==00, 0xfffe
    6bc2:	b0 12 8c 61 	call	#24972		;#0x618c
    6bc6:	1c 42 e2 54 	mov	&0x54e2,r12	;0x54e2
    6bca:	1c 53       	inc	r12		;
    6bcc:	82 4c e2 54 	mov	r12,	&0x54e2	;
    6bd0:	b0 12 dc 67 	call	#26588		;#0x67dc
    6bd4:	1c 42 e0 54 	mov	&0x54e0,r12	;0x54e0
    6bd8:	2c 4c       	mov	@r12,	r12	;
    6bda:	2c 4c       	mov	@r12,	r12	;
    6bdc:	00 4c       	br	r12		;
    6bde:	0f 43       	clr	r15		;
    6be0:	21 53       	incd	r1		;
    6be2:	34 41       	pop	r4		;
    6be4:	30 41       	ret			
	...

00006be8 <__mulhi3hw_noint>:
    6be8:	82 4f c0 04 	mov	r15,	&0x04c0	;
    6bec:	82 4e c8 04 	mov	r14,	&0x04c8	;
    6bf0:	1f 42 ca 04 	mov	&0x04ca,r15	;0x04ca
    6bf4:	30 41       	ret			

00006bf6 <UART_init>:
 * @todo Currently assumes an 8MHz SMCLK. Make robust to clock frequency changes by using 32k ACLK.
 */
void UART_init(void) {

    // Configure USCI_A0 for UART mode
    UCA0CTLW0 = UCSWRST;                      // Put eUSCI in reset
    6bf6:	92 43 c0 05 	mov	#1,	&0x05c0	;r3 As==01
    UCA0CTLW0 |= UCSSEL__SMCLK;               // CLK = SMCLK
    6bfa:	b2 d0 80 00 	bis	#128,	&0x05c0	;#0x0080
    6bfe:	c0 05 
    UCA0BR1 = 0;
    UCA0MCTLW = UCOS16 | UCBRF_2 | (0xBB << 8);
#endif // UART_BAUDRATE
#elif UART_CLOCK == 8000000
#if UART_BAUDRATE == 115200
    UCA0BR0 = 4;
    6c00:	e2 42 c6 05 	mov.b	#4,	&0x05c6	;r2 As==10
    UCA0BR1 = 0;
    6c04:	c2 43 c7 05 	mov.b	#0,	&0x05c7	;r3 As==00
    UCA0MCTLW = UCOS16 | UCBRF_4 | (0x55 << 8);
    6c08:	b2 40 41 55 	mov	#21825,	&0x05c8	;#0x5541
    6c0c:	c8 05 
#endif // UART_BAUDRATE
#endif // UART_CLOCK

#if defined(__MSP430FR5969__) || defined(__MSP430FR5949__)
    PUART_TXSEL0 &= ~PIN_UART_TX; // TX pin to UART module
    6c0e:	d2 c3 0b 02 	bic.b	#1,	&0x020b	;r3 As==01
    PUART_TXSEL1 |= PIN_UART_TX;
    6c12:	d2 d3 0d 02 	bis.b	#1,	&0x020d	;r3 As==01

    PUART_RXSEL0 &= ~PIN_UART_RX; // RX pin to UART module
    6c16:	e2 c3 0b 02 	bic.b	#2,	&0x020b	;r3 As==10
    PUART_RXSEL1 |= PIN_UART_RX;
    6c1a:	e2 d3 0d 02 	bis.b	#2,	&0x020d	;r3 As==10
    PUART_RXSEL1 &= ~PIN_UART_RX;
#else
#error MCU not supported
#endif

    UCA0CTLW0 &= ~UCSWRST;                    // Initialize eUSCI
    6c1e:	92 c3 c0 05 	bic	#1,	&0x05c0	;r3 As==01

    // Initialize module state
    UART_SM.isTxBusy = FALSE;
    6c22:	3c 40 22 1c 	mov	#7202,	r12	;#0x1c22
    6c26:	cc 43 00 00 	mov.b	#0,	0(r12)	;r3 As==00
    UART_SM.txBytesRemaining = 0;
    6c2a:	8c 43 04 00 	mov	#0,	4(r12)	;r3 As==00
    UART_SM.isRxBusy = FALSE;
    6c2e:	cc 43 06 00 	mov.b	#0,	6(r12)	;r3 As==00
    UART_SM.rxBytesRemaining = 0;
    6c32:	8c 43 0a 00 	mov	#0,	10(r12)	;r3 As==00, 0x000a

}
    6c36:	30 41       	ret			

00006c38 <UART_teardown>:
void UART_teardown()
{
    // disable UART
    // Not sure how to do this best, but set all UCA0* registers to
    // their default values.  See User's Guide for default values.
    PUART_TXSEL0 &= ~PIN_UART_TX;
    6c38:	d2 c3 0b 02 	bic.b	#1,	&0x020b	;r3 As==01
    PUART_TXSEL1 &= ~PIN_UART_TX;
    6c3c:	d2 c3 0d 02 	bic.b	#1,	&0x020d	;r3 As==01
    PUART_RXSEL0 &= ~PIN_UART_RX;
    6c40:	e2 c3 0b 02 	bic.b	#2,	&0x020b	;r3 As==10
    PUART_RXSEL1 &= ~PIN_UART_RX;
    6c44:	e2 c3 0d 02 	bic.b	#2,	&0x020d	;r3 As==10
    UCA0CTLW0 = 0x0001;
    6c48:	92 43 c0 05 	mov	#1,	&0x05c0	;r3 As==01
    UCA0BR0 = 0x0000;
    6c4c:	c2 43 c6 05 	mov.b	#0,	&0x05c6	;r3 As==00
    UCA0MCTLW = 0x0000;
    6c50:	82 43 c8 05 	mov	#0,	&0x05c8	;r3 As==00
    UCA0IE = 0x0000;
    6c54:	82 43 da 05 	mov	#0,	&0x05da	;r3 As==00
    UCA0IFG = 0x0000;
    6c58:	82 43 dc 05 	mov	#0,	&0x05dc	;r3 As==00
}
    6c5c:	30 41       	ret			

00006c5e <UART_asyncSend>:
 * @param size the number of bytes to send
 */
void UART_asyncSend(uint8_t* txBuf, uint16_t size) {

    // Block until prior transmission has completed
    while (UART_SM.isTxBusy)
    6c5e:	3f 40 22 1c 	mov	#7202,	r15	;#0x1c22
    6c62:	6e 4f       	mov.b	@r15,	r14	;
    6c64:	0e 93       	cmp	#0,	r14	;r3 As==00
    6c66:	fd 23       	jnz	$-4      	;abs 0x6c62
        ;

    // Set up for start of transmission
    UART_SM.isTxBusy = TRUE;
    6c68:	3e 40 22 1c 	mov	#7202,	r14	;#0x1c22
    6c6c:	de 43 00 00 	mov.b	#1,	0(r14)	;r3 As==01
    UART_SM.txPtr = txBuf;
    6c70:	8e 4c 02 00 	mov	r12,	2(r14)	;
    UART_SM.txBytesRemaining = size;
    6c74:	8e 4d 04 00 	mov	r13,	4(r14)	;

    UCA0IFG &= ~(USCI_UART_UCTXIFG); // Clear the 'ready to accept byte' flag
    6c78:	a2 c2 dc 05 	bic	#4,	&0x05dc	;r2 As==10

    UCA0IE |= UCTXIE; // Enable USCI_A0 TX interrupt ('ready to accept byte')
    6c7c:	a2 d3 da 05 	bis	#2,	&0x05da	;r3 As==10
    //UCA0TXBUF = *(UART_SM.txPtr++); // Load in first byte

    // The bytes are transmitted in the TX ISR (which is called whenever the
    // UART is ready to accept a byte), and the isBusy flag is cleared when the
    // last byte has *finished* transmitting.
}
    6c80:	30 41       	ret			

00006c82 <UART_send>:
 * @param size the number of bytes to send
 *
 */
void UART_send(uint8_t* txBuf, uint16_t size) {

    UART_asyncSend(txBuf, size);
    6c82:	b0 12 5e 6c 	call	#27742		;#0x6c5e

    // Block until complete
    while (UART_SM.isTxBusy)
    6c86:	3d 40 22 1c 	mov	#7202,	r13	;#0x1c22
    6c8a:	6c 4d       	mov.b	@r13,	r12	;
    6c8c:	0c 93       	cmp	#0,	r12	;r3 As==00
    6c8e:	fd 23       	jnz	$-4      	;abs 0x6c8a
        ;
}
    6c90:	30 41       	ret			

00006c92 <UART_critSend>:
 *  and use UART status register polling instead of interrupts.
 */
void UART_critSend(uint8_t* txBuf, uint16_t size) {

    // Block until prior transmission has completed
    while (UART_SM.isTxBusy)
    6c92:	3f 40 22 1c 	mov	#7202,	r15	;#0x1c22
    6c96:	6e 4f       	mov.b	@r15,	r14	;
    6c98:	0e 93       	cmp	#0,	r14	;r3 As==00
    6c9a:	fd 23       	jnz	$-4      	;abs 0x6c96
        ;

    // Set up for start of transmission
    UART_SM.isTxBusy = TRUE;
    6c9c:	3e 40 22 1c 	mov	#7202,	r14	;#0x1c22
    6ca0:	de 43 00 00 	mov.b	#1,	0(r14)	;r3 As==01
    UART_SM.txPtr = txBuf;
    6ca4:	8e 4c 02 00 	mov	r12,	2(r14)	;
    UART_SM.txBytesRemaining = size;
    6ca8:	8e 4d 04 00 	mov	r13,	4(r14)	;

    UCA0IV &= ~(USCI_UART_UCTXIFG); // Clear byte completion flag
    6cac:	a2 c2 de 05 	bic	#4,	&0x05de	;r2 As==10

    while (UART_SM.txBytesRemaining--) {
    6cb0:	1c 4e 04 00 	mov	4(r14),	r12	;
    6cb4:	0d 4c       	mov	r12,	r13	;
    6cb6:	3d 53       	add	#-1,	r13	;r3 As==11
    6cb8:	8e 4d 04 00 	mov	r13,	4(r14)	;
    6cbc:	0c 93       	cmp	#0,	r12	;r3 As==00
    6cbe:	19 24       	jz	$+52     	;abs 0x6cf2
        UCA0TXBUF = *(UART_SM.txPtr++); // Load in next byte
    6cc0:	0c 4e       	mov	r14,	r12	;
    6cc2:	1d 4c 02 00 	mov	2(r12),	r13	;
    6cc6:	0e 4d       	mov	r13,	r14	;
    6cc8:	1e 53       	inc	r14		;
    6cca:	8c 4e 02 00 	mov	r14,	2(r12)	;
    6cce:	6d 4d       	mov.b	@r13,	r13	;
    6cd0:	3d f0 ff 00 	and	#255,	r13	;#0x00ff
    6cd4:	82 4d ce 05 	mov	r13,	&0x05ce	;
        while (!(UCA0IFG & UCTXIFG))
    6cd8:	a2 b3 dc 05 	bit	#2,	&0x05dc	;r3 As==10
    6cdc:	fd 27       	jz	$-4      	;abs 0x6cd8
            ; // Wait for byte transmission to complete
        UCA0IFG &= ~(UCTXIFG); // Clear byte completion flag
    6cde:	a2 c3 dc 05 	bic	#2,	&0x05dc	;r3 As==10
    UART_SM.txPtr = txBuf;
    UART_SM.txBytesRemaining = size;

    UCA0IV &= ~(USCI_UART_UCTXIFG); // Clear byte completion flag

    while (UART_SM.txBytesRemaining--) {
    6ce2:	1d 4c 04 00 	mov	4(r12),	r13	;
    6ce6:	0e 4d       	mov	r13,	r14	;
    6ce8:	3e 53       	add	#-1,	r14	;r3 As==11
    6cea:	8c 4e 04 00 	mov	r14,	4(r12)	;
    6cee:	0d 93       	cmp	#0,	r13	;r3 As==00
    6cf0:	e8 23       	jnz	$-46     	;abs 0x6cc2
        while (!(UCA0IFG & UCTXIFG))
            ; // Wait for byte transmission to complete
        UCA0IFG &= ~(UCTXIFG); // Clear byte completion flag
    }

    UART_SM.isTxBusy = FALSE;
    6cf2:	c2 43 22 1c 	mov.b	#0,	&0x1c22	;r3 As==00
}
    6cf6:	30 41       	ret			

00006cf8 <UART_isTxBusy>:
/**
 * Return true if UART TX module is in the middle of an operation, false if not.
 */
uint8_t UART_isTxBusy() {
    return UART_SM.isTxBusy;
}
    6cf8:	5c 42 22 1c 	mov.b	&0x1c22,r12	;0x1c22
    6cfc:	30 41       	ret			

00006cfe <UART_asyncReceive>:
 * @param size the number of bytes to receive
 */
void UART_asyncReceive(uint8_t* rxBuf, uint16_t size) {

    // Block until prior reception has completed
    while (UART_SM.isRxBusy)
    6cfe:	3f 40 22 1c 	mov	#7202,	r15	;#0x1c22
    6d02:	5e 4f 06 00 	mov.b	6(r15),	r14	;
    6d06:	0e 93       	cmp	#0,	r14	;r3 As==00
    6d08:	fc 23       	jnz	$-6      	;abs 0x6d02
        ;

    // Set up for start of reception
    UART_SM.isRxBusy = TRUE;
    6d0a:	3e 40 22 1c 	mov	#7202,	r14	;#0x1c22
    6d0e:	de 43 06 00 	mov.b	#1,	6(r14)	;r3 As==01
    UART_SM.rxPtr = rxBuf;
    6d12:	8e 4c 08 00 	mov	r12,	8(r14)	;
    UART_SM.rxBytesRemaining = size;
    6d16:	8e 4d 0a 00 	mov	r13,	10(r14)	; 0x000a

    UCA0IFG &= ~(UCRXIFG); // Clear byte completion flag
    6d1a:	92 c3 dc 05 	bic	#1,	&0x05dc	;r3 As==01

    UCA0IE |= UCRXIE; // Enable USCI_A0 RX interrupt
    6d1e:	92 d3 da 05 	bis	#1,	&0x05da	;r3 As==01

    // The rest of the reception will be completed by the RX ISR (which
    //  will wake after each byte has been received), and the isBusy flag
    //  will be cleared when done.
}
    6d22:	30 41       	ret			

00006d24 <UART_receive>:
 * @param size the number of bytes to receive
 *
 */
void UART_receive(uint8_t* rxBuf, uint16_t size) {

    UART_asyncReceive(rxBuf, size);
    6d24:	b0 12 fe 6c 	call	#27902		;#0x6cfe

    // Block until complete
    while (UART_SM.isRxBusy)
    6d28:	3d 40 22 1c 	mov	#7202,	r13	;#0x1c22
    6d2c:	5c 4d 06 00 	mov.b	6(r13),	r12	;
    6d30:	0c 93       	cmp	#0,	r12	;r3 As==00
    6d32:	fc 23       	jnz	$-6      	;abs 0x6d2c
        ;
}
    6d34:	30 41       	ret			

00006d36 <UART_critReceive>:
 *  and use UART status register polling instead of interrupts.
 */
void UART_critReceive(uint8_t* rxBuf, uint16_t size) {

    // Block until prior reception has completed
    while (UART_SM.isRxBusy)
    6d36:	3f 40 22 1c 	mov	#7202,	r15	;#0x1c22
    6d3a:	5e 4f 06 00 	mov.b	6(r15),	r14	;
    6d3e:	0e 93       	cmp	#0,	r14	;r3 As==00
    6d40:	fc 23       	jnz	$-6      	;abs 0x6d3a
        ;

    // Set up for start of reception
    UART_SM.isRxBusy = TRUE;
    6d42:	3e 40 22 1c 	mov	#7202,	r14	;#0x1c22
    6d46:	de 43 06 00 	mov.b	#1,	6(r14)	;r3 As==01
    UART_SM.rxPtr = rxBuf;
    6d4a:	8e 4c 08 00 	mov	r12,	8(r14)	;
    UART_SM.rxBytesRemaining = size;
    6d4e:	8e 4d 0a 00 	mov	r13,	10(r14)	; 0x000a

    UCA0IFG &= ~(UCRXIFG); // Clear byte completion flag
    6d52:	92 c3 dc 05 	bic	#1,	&0x05dc	;r3 As==01

    while (UART_SM.rxBytesRemaining--) {
    6d56:	1c 4e 0a 00 	mov	10(r14),r12	;0x0000a
    6d5a:	0d 4c       	mov	r12,	r13	;
    6d5c:	3d 53       	add	#-1,	r13	;r3 As==11
    6d5e:	8e 4d 0a 00 	mov	r13,	10(r14)	; 0x000a
    6d62:	0c 93       	cmp	#0,	r12	;r3 As==00
    6d64:	18 24       	jz	$+50     	;abs 0x6d96
        while (!(UCA0IFG & UCRXIFG))
